AS12:                           HSW12:                          SOURCE CODE:
1000 86 01                      1000 86 01                      ldaa    #TEST1
1002 86 02                      1002 86 02			ldaa    #TEST2
1004 CC 0D 05                   1004 CC 0D 05			ldd     #3333
1007 86 4E                      1007 86 4E			ldaa    #'N'
4000 18 0A 6B 90                4000 18 0A 6B 90		movb    5,-y,-16,sp
4004 18 0A 6B D2                4004 18 0A 6B D2		movb    5,-y,-small,pc
4008 18 0A 6B 92                4008 18 0A 6B 92		movb    5,-y,-small,sp
400C 18 0A 7B 92                400C 18 0A 7B 92		movb    5,y-,-small,sp
4010 00 02                      4010 00 02			dw      2
4012 02                         4012 02				db      2
4013 00 02                      4013 00 02			dc.w    2
4015 02                         4015 02				dc.b    2
4016 02                         4016 02				fcb     2
4017 08 AE                      4017 08 AE			fdb     2222
4107 18 0A 6B 52                4107 18 0A 6B 52		movb    5,-y,-small,y
410B 18 0A 6B 80                410B 18 0A 6B 80		movb    5,-y,0,sp
410F 18 39                      410F 18 39			trap    $39
4111 0D 20 55                   4111 0D 20 55			bclr    1,+x,$55
4114 0D 20 55                   4114 0D 20 55			bclr    1,+x,#$55
4117 4D 55 55                   4117 4D 55 55			bclr    dir,$55
411A 4D 55 55                   411A 4D 55 55			bclr    dir,#$55
411D 1D 12 34 55                411D 1D 12 34 55		bclr    ext,$55
4121 1D 12 34 55                4121 1D 12 34 55		bclr    ext,#$55
4125 0F A0 55 FC                4125 0F A0 55 FC		brclr   1,+sp,$55, *
4129 0F A0 55 FC                4129 0F A0 55 FC		brclr   1,+sp,#$55, *
412D 0E A0 55 FC                412D 0E A0 55 FC		brset   1,+sp,$55,*
4131 0E A0 55 FC                4131 0E A0 55 FC		brset   1,+sp,#$55,*
4135 4E 55 55 FC                4135 4E 55 55 FC		brset   dir,$55,*
4139 4E 55 55 FC                4139 4E 55 55 FC		brset   dir,#$55,*
413D 1E 12 34 55 FB             413D 1E 12 34 55 FB		brset   ext,$55,*
4142 1E 12 34 55 FB             4142 1E 12 34 55 FB		brset   ext,#$55,*
4147 0C A0 55                   4147 0C A0 55			bset    1,+sp,$55
414A 0C A0 55                   414A 0C A0 55			bset    1,+sp,#$55
414D 4C 55 55                   414D 4C 55 55			bset    dir,$55
4150 4C 55 55                   4150 4C 55 55			bset    dir,#$55
4153 18 01 02 12 34             4153 18 01 02 12 34		movw    ext,  2,x
4158 18 02 02 00                4158 18 02 02 00		movw    2,x,  0,x
415C 18 0D 81 12 34             415C 18 0D 81 12 34		movb    1,sp, ext
4161 18 0A 81 0C                4161 18 0A 81 0C		movb    1,sp, 12,x
4165 18 05 82 12 34             4165 18 05 82 12 34		movw    2,sp, ext
416A 18 02 82 0C                416A 18 02 82 0C		movw    2,sp, 12,x
416E 18 08 AF 72                416E 18 08 AF 72		movb    #immed, 1,-sp
4172 18 01 AE 12 34             4172 18 01 AE 12 34		movw    ext, 2,-sp
4177 18 09 AF 12 34             4177 18 09 AF 12 34		movb    ext, 1,-sp
417C 18 00 AE 00 72             417C 18 00 AE 00 72		movw    #immed, 2,-sp
4181 18 00 AE 00 72             4181 18 00 AE 00 72		movw    #immed, 2,-sp
4186 18 06                      4186 18 06			aba
4188 1A E5                      4188 1A E5			abx
418A 19 ED                      418A 19 ED			aby
418C 89 72                      418C 89 72			adca    #immed
418E 89 72                      418E 89 72			adca    #immed
4190 89 72                      4190 89 72			adca    #immed
4192 89 72                      4192 89 72                      adca    #immed
4194 89 72                      4194 89 72                      adca    #immed
4196 A9 A0                      4196 A9 A0                      adca    1,+sp
4198 A9 60                      4198 A9 60                      adca    1,+y
419A A9 A7                      419A A9 A7                      adca    8,+sp           ; a comma is in , order in the comment
419C A9 67                      419C A9 67                      adca    8,+y
419E A9 C0                      419E A9 C0                      adca    ,pc
41A0 A9 80                      41A0 A9 80                      adca    ,sp
41A2 A9 00                      41A2 A9 00                      adca    ,x
41A4 A9 40                      41A4 A9 40                      adca    ,y
41A6 A9 AF                      41A6 A9 AF                      adca    1,-sp
41A8 A9 2F                      41A8 A9 2F                      adca    1,-x
41AA A9 6F                      41AA A9 6F                      adca    1,-y
41AC A9 A8                      41AC A9 A8                      adca    8,-sp
41AE A9 28                      41AE A9 28                      adca    8,-x
41B0 A9 68                      41B0 A9 68                      adca    8,-y
41B2 A9 9F                      41B2 A9 9F                      adca    -1,sp
41B4 A9 1F                      41B4 A9 1F                      adca    -1,x
41B6 A9 5F                      41B6 A9 5F                      adca    -1,y
41B8 A9 90                      41B8 A9 90                      adca    -16,sp
41BA 18 23 FF EA                41BA 18 23 FF EA                lbls    reset   ;mert
41BE 15 F9 EA                   41BE 15 F9 EA                   jsr     reset-*,pc
41C1 15 FA 41 C1                41C1 15 FA 41 C1                jsr     *,pc
41C5 16 41 C5                   41C5 16 41 C5                   jsr     *
41C8 18 23 FF FC                41C8 18 23 FF FC                lbls    *
41CC A9 10                      41CC A9 10                      adca    -16,x
41CE A9 50                      41CE A9 50                      adca    -16,y
41D0 A9 F1 EF                   41D0 A9 F1 EF                   adca    -17,sp
41D3 A7                      <                                  ALIGN   1
41D4 A9 E1 EF                   41D4 A9 E1 EF                   adca    -17,x
41D7 A9 E9 EF                   41D7 A9 E9 EF                   adca    -17,y
41DA A7 A7                   <                                  ALIGN   3
41DC A9 D2                      41DC A9 D2                      adca    -small,pc
41DE A9 92                      41DE A9 92                      adca    -small,sp
41E0 A9 12                      41E0 A9 12                      adca    -small,x
41E2 A7 A7 A7 A7 A7 A7       <                                  ALIGN   7
41E8 A9 52                      41E8 A9 52                      adca    -small,y
41EA A9 C0                      41EA A9 C0                      adca    0,pc
41EC A9 80                      41EC A9 80                      adca    0,sp
41EE A9 00                      41EE A9 00                      adca    0,x
41F0 A9 40                      41F0 A9 40                      adca    0,y
41F2 A9 B0                      41F2 A9 B0                      adca    1,sp+
41F4 A9 30                      41F4 A9 30                      adca    1,x+
41F6 A9 E2 12 34                41F6 A9 E2 12 34                adca    ext,x
41FA A9 E2 12 34                41FA A9 E2 12 34                adca    ext,x
41FE A9 E2 12 34                41FE A9 E2 12 34                adca    ext,x
4202 A9 E2 12 34                4202 A9 E2 12 34                adca    ext,x
4206 A9 E2 12 34                4206 A9 E2 12 34                adca    ext,x
420A A9 70                      420A A9 70                      adca    1,y+
420C A9 81                      420C A9 81                      adca    1,sp
420E A9 01                      420E A9 01                      adca    1,x
4210 A9 41                      4210 A9 41                      adca    1,y
4212 A9 BF                      4212 A9 BF                      adca    1,sp-
4214 A9 3F                      4214 A9 3F                      adca    1,x-
4216 A9 7F                      4216 A9 7F                      adca    1,y-
4218 A9 F8 7D                   4218 A9 F8 7D                   adca    125,pc
421B A9 F0 7D                   421B A9 F0 7D                   adca    125,sp
421E A9 E0 7D                   421E A9 E0 7D                   adca    125,x
4221 A9 E8 7D                   4221 A9 E8 7D                   adca    125,y
4224 A9 8F                      4224 A9 8F                      adca    15,sp
4226 A9 0F                      4226 A9 0F                      adca    15,x
4228 A9 4F                      4228 A9 4F                      adca    15,y
422A A9 F0 10                   422A A9 F0 10                   adca    16,sp
422D A9 E0 10                   422D A9 E0 10                   adca    16,x
4230 A9 E8 10                   4230 A9 E8 10                   adca    16,y
4233 A9 B7                      4233 A9 B7                      adca    8,sp+
4235 A9 37                      4235 A9 37                      adca    8,x+
4237 A9 77                      4237 A9 77                      adca    8,y+
4239 A9 B8                      4239 A9 B8                      adca    8,sp-
423B A9 38                      423B A9 38                      adca    8,x-
423D A9 78                      423D A9 78                      adca    8,y-
423F A9 F4                      423F A9 F4                      adca    a,sp
4241 A9 E4                      4241 A9 E4                      adca    a,x
4243 A9 EC                      4243 A9 EC                      adca    a,y
4245 A9 F5                      4245 A9 F5                      adca    b,sp
4247 A9 E5                      4247 A9 E5                      adca    b,x
4249 A9 ED                      4249 A9 ED                      adca    b,y
424B A9 F6                      424B A9 F6                      adca    d,sp
424D A9 E6                      424D A9 E6                      adca    d,x
424F A9 EE                      424F A9 EE                      adca    d,y
4251 99 55                      4251 99 55                      adca    dir
4253 99 55                      4253 99 55                      adca    dir
4255 B9 12 34                   4255 B9 12 34                   adca    ext
4258 B9 12 34                   4258 B9 12 34                   adca    ext
425B A9 F2 12 34                425B A9 F2 12 34                adca    ext,sp
425F A9 E2 12 34                425F A9 E2 12 34                adca    ext,x
4263 A9 EA 12 34                4263 A9 EA 12 34                adca    ext,y
4267 A9 F8 37                   4267 A9 F8 37                   adca    ind,pc
426A A9 F0 37                   426A A9 F0 37                   adca    ind,sp
426D A9 E0 37                   426D A9 E0 37                   adca    ind,x
4270 A9 E8 37                   4270 A9 E8 37                   adca    ind,y
4273 A9 CE                      4273 A9 CE                      adca    small,pc
4275 A9 8E                      4275 A9 8E                      adca    small,sp
4277 A9 0E                      4277 A9 0E                      adca    small,x
4279 A9 4E                      4279 A9 4E                      adca    small,y
427B C9 72                      427B C9 72                      adcb    #immed
427D E9 A0                      427D E9 A0                      adcb    1,+sp
427F E9 D2                      427F E9 D2                      adcb    -small,pc
4281 E9 F8 7D                   4281 E9 F8 7D                   adcb    125,pc
4284 D9 55                      4284 D9 55                      adcb    dir
4286 F9 12 34                   4286 F9 12 34                   adcb    ext
4289 E9 F2 12 34                4289 E9 F2 12 34                adcb    ext,sp
428D 8B 72                      428D 8B 72                      adda    #immed
428F AB A0                      428F AB A0                      adda    1,+sp
4291 9B 55                      4291 9B 55                      adda    dir
4293 BB 12 34                   4293 BB 12 34                   adda    ext
4296 BB 12 34                   4296 BB 12 34                   adda    ext
4299 CB 72                      4299 CB 72                      addb    #immed
429B EB A0                      429B EB A0                      addb    1,+sp
429D DB 55                      429D DB 55                      addb    dir
429F FB 12 34                   429F FB 12 34                   addb    ext
42A2 C3 00 72                   42A2 C3 00 72                   addd    #immed
42A5 E3 A0                      42A5 E3 A0                      addd    1,+sp
42A7 D3 55                      42A7 D3 55                      addd    dir
42A9 F3 12 34                   42A9 F3 12 34                   addd    ext
42AC 84 72                      42AC 84 72                      anda    #immed
42AE A4 A0                      42AE A4 A0                      anda    1,+sp
42B0 94 55                      42B0 94 55                      anda    dir
42B2 B4 12 34                   42B2 B4 12 34                   anda    ext
42B5 C4 72                      42B5 C4 72                      andb    #immed
42B7 E4 A0                      42B7 E4 A0                      andb    1,+sp
42B9 D4 55                      42B9 D4 55                      andb    dir
42BB F4 12 34                   42BB F4 12 34                   andb    ext
42BE 10 72                      42BE 10 72                      andcc   #immed
42C0 68 A0                      42C0 68 A0                      asl     1,+sp
42C2 78 00 55                   42C2 78 00 55                   asl     dir
42C5 78 12 34                   42C5 78 12 34                   asl     ext
42C8 48                         42C8 48                         asla
42C9 58                         42C9 58                         aslb
42CA 59                         42CA 59                         asld
42CB 67 A0                      42CB 67 A0                      asr     1,+sp
42CD 77 00 55                   42CD 77 00 55                   asr     dir
42D0 77 12 34                   42D0 77 12 34                   asr     ext
42D3 47                         42D3 47                         asra
42D4 57                         42D4 57                         asrb
42D5 24 FE                      42D5 24 FE                      bcc     *
42D7 25 FE                      42D7 25 FE                      bcs     *
42D9 27 FE                      42D9 27 FE                      beq     *
42DB 2C FE                      42DB 2C FE                      bge     *
42DD 2E FE                      42DD 2E FE                      bgt     *
42DF 22 FE                      42DF 22 FE                      bhi     *
42E1 85 72                      42E1 85 72                      bita    #immed
42E3 A5 A0                      42E3 A5 A0                      bita    1,+sp
42E5 95 55                      42E5 95 55                      bita    dir
42E7 B5 12 34                   42E7 B5 12 34                   bita    ext
42EA C5 72                      42EA C5 72                      bitb    #immed
42EC E5 A0                      42EC E5 A0                      bitb    1,+sp
42EE D5 55                      42EE D5 55                      bitb    dir
42F0 F5 12 34                   42F0 F5 12 34                   bitb    ext
42F3 2F FE                      42F3 2F FE                      ble     *
42F5 23 FE                      42F5 23 FE                      bls     *
42F7 2D FE                      42F7 2D FE                      blt     *
42F9 2B FE                      42F9 2B FE                      bmi     *
42FB 26 FE                      42FB 26 FE                      bne     *
42FD 2A FE                      42FD 2A FE                      bpl     *
42FF 20 FE                      42FF 20 FE                      bra     *
4301 21 FE                      4301 21 FE                      brn     *
4303 07 FE                      4303 07 FE                      bsr     *
4305 28 FE                      4305 28 FE                      bvc     *
4307 29 FE                      4307 29 FE                      bvs     *
4309 18 17                      4309 18 17                      cba
430B 10 FE                      430B 10 FE                      clc
430D 10 EF                      430D 10 EF                      cli
430F 69 A0                      430F 69 A0                      clr     1,+sp
4311 79 00 55                   4311 79 00 55                   clr     dir
4314 79 12 34                   4314 79 12 34                   clr     ext
4317 87                         4317 87                         clra
4318 C7                         4318 C7                         clrb
4319 10 FD                      4319 10 FD                      clv
431B 81 72                      431B 81 72                      cmpa    #immed
431D A1 A0                      431D A1 A0                      cmpa    1,+sp
431F 91 55                      431F 91 55                      cmpa    dir
4321 B1 12 34                   4321 B1 12 34                   cmpa    ext
4324 C1 72                      4324 C1 72                      cmpb    #immed
4326 C1 72                      4326 C1 72                      cmpb    #immed
4328 E1 A0                      4328 E1 A0                      cmpb    1,+sp
432A E1 20                      432A E1 20                      cmpb    1,+x
432C E1 60                      432C E1 60                      cmpb    1,+y
432E E1 A7                      432E E1 A7                      cmpb    8,+sp
4330 E1 27                      4330 E1 27                      cmpb    8,+x
4332 E1 67                      4332 E1 67                      cmpb    8,+y
4334 E1 C0                      4334 E1 C0                      cmpb    ,pc
4336 E1 80                      4336 E1 80                      cmpb    ,sp
4338 E1 00                      4338 E1 00                      cmpb    ,x
433A E1 40                      433A E1 40                      cmpb    ,y
433C E1 AF                      433C E1 AF                      cmpb    1,-sp
433E E1 2F                      433E E1 2F                      cmpb    1,-x
4340 E1 6F                      4340 E1 6F                      cmpb    1,-y
4342 E1 A8                      4342 E1 A8                      cmpb    8,-sp
4344 E1 28                      4344 E1 28                      cmpb    8,-x
4346 E1 68                      4346 E1 68                      cmpb    8,-y
4348 E1 9F                      4348 E1 9F                      cmpb    -1,sp
434A E1 1F                      434A E1 1F                      cmpb    -1,x
434C E1 5F                      434C E1 5F                      cmpb    -1,y
434E E1 90                      434E E1 90                      cmpb    -16,sp
4350 E1 10                      4350 E1 10                      cmpb    -16,x
4352 E1 50                      4352 E1 50                      cmpb    -16,y
4354 E1 F1 EF                   4354 E1 F1 EF                   cmpb    -17,sp
4357 E1 E1 EF                   4357 E1 E1 EF                   cmpb    -17,x
435A E1 E9 EF                   435A E1 E9 EF                   cmpb    -17,y
435D E1 D2                      435D E1 D2                      cmpb    -small,pc
435F E1 92                      435F E1 92                      cmpb    -small,sp
4361 E1 12                      4361 E1 12                      cmpb    -small,x
4363 E1 52                      4363 E1 52                      cmpb    -small,y
4365 E1 C0                      4365 E1 C0                      cmpb    0,pc
4367 E1 80                      4367 E1 80                      cmpb    0,sp
4369 E1 00                      4369 E1 00                      cmpb    0,x
436B E1 40                      436B E1 40                      cmpb    0,y
436D E1 B0                      436D E1 B0                      cmpb    1,sp+
436F E1 30                      436F E1 30                      cmpb    1,x+
4371 E1 70                      4371 E1 70                      cmpb    1,y+
4373 E1 81                      4373 E1 81                      cmpb    1,sp
4375 E1 01                      4375 E1 01                      cmpb    1,x
4377 E1 41                      4377 E1 41                      cmpb    1,y
4379 E1 BF                      4379 E1 BF                      cmpb    1,sp-
437B E1 3F                      437B E1 3F                      cmpb    1,x-
437D E1 7F                      437D E1 7F                      cmpb    1,y-
437F E1 F8 7D                   437F E1 F8 7D                   cmpb    125,pc
4382 E1 F0 7D                   4382 E1 F0 7D                   cmpb    125,sp
4385 E1 E0 7D                   4385 E1 E0 7D                   cmpb    125,x
4388 E1 E8 7D                   4388 E1 E8 7D                   cmpb    125,y
438B E1 8F                      438B E1 8F                      cmpb    15,sp
438D E1 0F                      438D E1 0F                      cmpb    15,x
438F E1 4F                      438F E1 4F                      cmpb    15,y
4391 E1 F0 10                   4391 E1 F0 10                   cmpb    16,sp
4394 E1 E0 10                   4394 E1 E0 10                   cmpb    16,x
4397 E1 E8 10                   4397 E1 E8 10                   cmpb    16,y
439A E1 B7                      439A E1 B7                      cmpb    8,sp+
439C E1 37                      439C E1 37                      cmpb    8,x+
439E E1 77                      439E E1 77                      cmpb    8,y+
43A0 E1 B8                      43A0 E1 B8                      cmpb    8,sp-
43A2 E1 38                      43A2 E1 38                      cmpb    8,x-
43A4 E1 78                      43A4 E1 78                      cmpb    8,y-
43A6 E1 F4                      43A6 E1 F4                      cmpb    a,sp
43A8 E1 E4                      43A8 E1 E4                      cmpb    a,x
43AA E1 EC                      43AA E1 EC                      cmpb    a,y
43AC E1 F5                      43AC E1 F5                      cmpb    b,sp
43AE E1 E5                      43AE E1 E5                      cmpb    b,x
43B0 E1 ED                      43B0 E1 ED                      cmpb    b,y
43B2 E1 F6                      43B2 E1 F6                      cmpb    d,sp
43B4 E1 E6                      43B4 E1 E6                      cmpb    d,x
43B6 E1 EE                      43B6 E1 EE                      cmpb    d,y
43B8 D1 55                      43B8 D1 55                      cmpb    dir
43BA D1 55                      43BA D1 55                      cmpb    dir
43BC F1 12 34                   43BC F1 12 34                   cmpb    ext
43BF F1 12 34                   43BF F1 12 34                   cmpb    ext
43C2 E1 F2 12 34                43C2 E1 F2 12 34                cmpb    ext,sp
43C6 E1 E2 12 34                43C6 E1 E2 12 34                cmpb    ext,x
43CA E1 EA 12 34                43CA E1 EA 12 34                cmpb    ext,y
43CE E1 F8 37                   43CE E1 F8 37                   cmpb    ind,pc
43D1 E1 F0 37                   43D1 E1 F0 37                   cmpb    ind,sp
43D4 E1 E0 37                   43D4 E1 E0 37                   cmpb    ind,x
43D7 E1 E8 37                   43D7 E1 E8 37                   cmpb    ind,y
43DA E1 CE                      43DA E1 CE                      cmpb    small,pc
43DC E1 8E                      43DC E1 8E                      cmpb    small,sp
43DE E1 0E                      43DE E1 0E                      cmpb    small,x
43E0 E1 4E                      43E0 E1 4E                      cmpb    small,y
43E2 61 A0                      43E2 61 A0                      com     1,+sp
43E4 61 20                      43E4 61 20                      com     1,+x
43E6 61 60                      43E6 61 60                      com     1,+y
43E8 61 A7                      43E8 61 A7                      com     8,+sp
43EA 61 27                      43EA 61 27                      com     8,+x
43EC 61 67                      43EC 61 67                      com     8,+y
43EE 61 C0                      43EE 61 C0                      com     ,pc
43F0 61 80                      43F0 61 80                      com     ,sp
43F2 61 00                      43F2 61 00                      com     ,x
43F4 61 40                      43F4 61 40                      com     ,y
43F6 61 AF                      43F6 61 AF                      com     1,-sp
43F8 61 2F                      43F8 61 2F                      com     1,-x
43FA 61 6F                      43FA 61 6F                      com     1,-y
43FC 61 A8                      43FC 61 A8                      com     8,-sp
43FE 61 28                      43FE 61 28                      com     8,-x
4400 61 68                      4400 61 68                      com     8,-y
4402 61 9F                      4402 61 9F                      com     -1,sp
4404 61 1F                      4404 61 1F                      com     -1,x
4406 61 5F                      4406 61 5F                      com     -1,y
4408 61 90                      4408 61 90                      com     -16,sp
440A 61 10                      440A 61 10                      com     -16,x
440C 61 50                      440C 61 50                      com     -16,y
440E 61 F1 EF                   440E 61 F1 EF                   com     -17,sp
4411 61 E1 EF                   4411 61 E1 EF                   com     -17,x
4414 61 E9 EF                   4414 61 E9 EF                   com     -17,y
4417 61 D2                      4417 61 D2                      com     -small,pc
4419 61 92                      4419 61 92                      com     -small,sp
441B 61 12                      441B 61 12                      com     -small,x
441D 61 52                      441D 61 52                      com     -small,y
441F 61 C0                      441F 61 C0                      com     0,pc
4421 61 80                      4421 61 80                      com     0,sp
4423 61 00                      4423 61 00                      com     0,x
4425 61 40                      4425 61 40                      com     0,y
4427 61 B0                      4427 61 B0                      com     1,sp+
4429 61 30                      4429 61 30                      com     1,x+
442B 61 70                      442B 61 70                      com     1,y+
442D 61 81                      442D 61 81                      com     1,sp
442F 61 01                      442F 61 01                      com     1,x
4431 61 41                      4431 61 41                      com     1,y
4433 61 BF                      4433 61 BF                      com     1,sp-
4435 61 3F                      4435 61 3F                      com     1,x-
4437 61 7F                      4437 61 7F                      com     1,y-
4439 61 F8 7D                   4439 61 F8 7D                   com     125,pc
443C 61 F0 7D                   443C 61 F0 7D                   com     125,sp
443F 61 E0 7D                   443F 61 E0 7D                   com     125,x
4442 61 E8 7D                   4442 61 E8 7D                   com     125,y
4445 61 8F                      4445 61 8F                      com     15,sp
4447 61 0F                      4447 61 0F                      com     15,x
4449 61 4F                      4449 61 4F                      com     15,y
444B 61 F0 10                   444B 61 F0 10                   com     16,sp
444E 61 E0 10                   444E 61 E0 10                   com     16,x
4451 61 E8 10                   4451 61 E8 10                   com     16,y
4454 61 B7                      4454 61 B7                      com     8,sp+
4456 61 37                      4456 61 37                      com     8,x+
4458 61 77                      4458 61 77                      com     8,y+
445A 61 B8                      445A 61 B8                      com     8,sp-
445C 61 38                      445C 61 38                      com     8,x-
445E 61 78                      445E 61 78                      com     8,y-
4460 61 F4                      4460 61 F4                      com     a,sp
4462 61 E4                      4462 61 E4                      com     a,x
4464 61 EC                      4464 61 EC                      com     a,y
4466 61 F5                      4466 61 F5                      com     b,sp
4468 61 E5                      4468 61 E5                      com     b,x
446A 61 ED                      446A 61 ED                      com     b,y
446C 61 F6                      446C 61 F6                      com     d,sp
446E 61 E6                      446E 61 E6                      com     d,x
4470 61 EE                      4470 61 EE                      com     d,y
4472 71 00 55                   4472 71 00 55                   com     dir
4475 71 12 34                   4475 71 12 34                   com     ext
4478 71 12 34                   4478 71 12 34                   com     ext
447B 61 F2 12 34                447B 61 F2 12 34                com     ext,sp
447F 61 E2 12 34                447F 61 E2 12 34                com     ext,x
4483 61 EA 12 34                4483 61 EA 12 34                com     ext,y
4487 61 F8 37                   4487 61 F8 37                   com     ind,pc
448A 61 F0 37                   448A 61 F0 37                   com     ind,sp
448D 61 E0 37                   448D 61 E0 37                   com     ind,x
4490 61 E8 37                   4490 61 E8 37                   com     ind,y
4493 61 CE                      4493 61 CE                      com     small,pc
4495 61 8E                      4495 61 8E                      com     small,sp
4497 61 0E                      4497 61 0E                      com     small,x
4499 61 4E                      4499 61 4E                      com     small,y
449B 41                         449B 41                         coma
449C 51                         449C 51                         comb
449D 8C 00 72                   449D 8C 00 72                   cpd     #immed
44A0 8C 00 72                   44A0 8C 00 72                   cpd     #immed
44A3 AC A0                      44A3 AC A0                      cpd     1,+sp
44A5 AC 20                      44A5 AC 20                      cpd     1,+x
44A7 AC 60                      44A7 AC 60                      cpd     1,+y
44A9 AC A7                      44A9 AC A7                      cpd     8,+sp
44AB AC 27                      44AB AC 27                      cpd     8,+x
44AD AC 67                      44AD AC 67                      cpd     8,+y
44AF AC C0                      44AF AC C0                      cpd     ,pc
44B1 AC 80                      44B1 AC 80                      cpd     ,sp
44B3 AC 00                      44B3 AC 00                      cpd     ,x
44B5 AC 40                      44B5 AC 40                      cpd     ,y
44B7 AC AF                      44B7 AC AF                      cpd     1,-sp
44B9 AC 2F                      44B9 AC 2F                      cpd     1,-x
44BB AC 6F                      44BB AC 6F                      cpd     1,-y
44BD AC A8                      44BD AC A8                      cpd     8,-sp
44BF AC 28                      44BF AC 28                      cpd     8,-x
44C1 AC 68                      44C1 AC 68                      cpd     8,-y
44C3 AC 9F                      44C3 AC 9F                      cpd     -1,sp
44C5 AC 1F                      44C5 AC 1F                      cpd     -1,x
44C7 AC 5F                      44C7 AC 5F                      cpd     -1,y
44C9 AC 90                      44C9 AC 90                      cpd     -16,sp
44CB AC 10                      44CB AC 10                      cpd     -16,x
44CD AC 50                      44CD AC 50                      cpd     -16,y
44CF AC F1 EF                   44CF AC F1 EF                   cpd     -17,sp
44D2 AC E1 EF                   44D2 AC E1 EF                   cpd     -17,x
44D5 AC E9 EF                   44D5 AC E9 EF                   cpd     -17,y
44D8 AC D2                      44D8 AC D2                      cpd     -small,pc
44DA AC 92                      44DA AC 92                      cpd     -small,sp
44DC AC 12                      44DC AC 12                      cpd     -small,x
44DE AC 52                      44DE AC 52                      cpd     -small,y
44E0 AC C0                      44E0 AC C0                      cpd     0,pc
44E2 AC 80                      44E2 AC 80                      cpd     0,sp
44E4 AC 00                      44E4 AC 00                      cpd     0,x
44E6 AC 40                      44E6 AC 40                      cpd     0,y
44E8 AC B0                      44E8 AC B0                      cpd     1,sp+
44EA AC 30                      44EA AC 30                      cpd     1,x+
44EC AC 70                      44EC AC 70                      cpd     1,y+
44EE AC 81                      44EE AC 81                      cpd     1,sp
44F0 AC 01                      44F0 AC 01                      cpd     1,x
44F2 AC 41                      44F2 AC 41                      cpd     1,y
44F4 AC BF                      44F4 AC BF                      cpd     1,sp-
44F6 AC 3F                      44F6 AC 3F                      cpd     1,x-
44F8 AC 7F                      44F8 AC 7F                      cpd     1,y-
44FA AC F8 7D                   44FA AC F8 7D                   cpd     125,pc
44FD AC F0 7D                   44FD AC F0 7D                   cpd     125,sp
4500 AC E0 7D                   4500 AC E0 7D                   cpd     125,x
4503 AC E8 7D                   4503 AC E8 7D                   cpd     125,y
4506 AC 8F                      4506 AC 8F                      cpd     15,sp
4508 AC 0F                      4508 AC 0F                      cpd     15,x
450A AC 4F                      450A AC 4F                      cpd     15,y
450C AC F0 10                   450C AC F0 10                   cpd     16,sp
450F AC E0 10                   450F AC E0 10                   cpd     16,x
4512 AC E8 10                   4512 AC E8 10                   cpd     16,y
4515 AC B7                      4515 AC B7                      cpd     8,sp+
4517 AC 37                      4517 AC 37                      cpd     8,x+
4519 AC 77                      4519 AC 77                      cpd     8,y+
451B AC B8                      451B AC B8                      cpd     8,sp-
451D AC 38                      451D AC 38                      cpd     8,x-
451F AC 78                      451F AC 78                      cpd     8,y-
4521 AC F4                      4521 AC F4                      cpd     a,sp
4523 AC E4                      4523 AC E4                      cpd     a,x
4525 AC EC                      4525 AC EC                      cpd     a,y
4527 AC F5                      4527 AC F5                      cpd     b,sp
4529 AC E5                      4529 AC E5                      cpd     b,x
452B AC ED                      452B AC ED                      cpd     b,y
452D AC F6                      452D AC F6                      cpd     d,sp
452F AC E6                      452F AC E6                      cpd     d,x
4531 AC EE                      4531 AC EE                      cpd     d,y
4533 9C 55                      4533 9C 55                      cpd     dir
4535 9C 55                      4535 9C 55                      cpd     dir
4537 BC 12 34                   4537 BC 12 34                   cpd     ext
453A BC 12 34                   453A BC 12 34                   cpd     ext
453D AC F2 12 34                453D AC F2 12 34                cpd     ext,sp
4541 AC E2 12 34                4541 AC E2 12 34                cpd     ext,x
4545 AC EA 12 34                4545 AC EA 12 34                cpd     ext,y
4549 AC F8 37                   4549 AC F8 37                   cpd     ind,pc
454C AC F0 37                   454C AC F0 37                   cpd     ind,sp
454F AC E0 37                   454F AC E0 37                   cpd     ind,x
4552 AC E8 37                   4552 AC E8 37                   cpd     ind,y
4555 AC CE                      4555 AC CE                      cpd     small,pc
4557 AC 8E                      4557 AC 8E                      cpd     small,sp
4559 AC 0E                      4559 AC 0E                      cpd     small,x
455B AC 4E                      455B AC 4E                      cpd     small,y
455D 8F 00 72                   455D 8F 00 72                   cps     #immed
4560 AF A0                      4560 AF A0                      cps     1,+sp
4562 AF 20                      4562 AF 20                      cps     1,+x
4564 AF 60                      4564 AF 60                      cps     1,+y
4566 AF A7                      4566 AF A7                      cps     8,+sp
4568 AF 27                      4568 AF 27                      cps     8,+x
456A AF 67                      456A AF 67                      cps     8,+y
456C AF C0                      456C AF C0                      cps     ,pc
456E AF 80                      456E AF 80                      cps     ,sp
4570 AF 00                      4570 AF 00                      cps     ,x
4572 AF 40                      4572 AF 40                      cps     ,y
4574 AF AF                      4574 AF AF                      cps     1,-sp
4576 AF 2F                      4576 AF 2F                      cps     1,-x
4578 AF 6F                      4578 AF 6F                      cps     1,-y
457A AF A8                      457A AF A8                      cps     8,-sp
457C AF 28                      457C AF 28                      cps     8,-x
457E AF 68                      457E AF 68                      cps     8,-y
4580 AF 9F                      4580 AF 9F                      cps     -1,sp
4582 AF 1F                      4582 AF 1F                      cps     -1,x
4584 AF 5F                      4584 AF 5F                      cps     -1,y
4586 AF 90                      4586 AF 90                      cps     -16,sp
4588 AF 10                      4588 AF 10                      cps     -16,x
458A AF 50                      458A AF 50                      cps     -16,y
458C AF F1 EF                   458C AF F1 EF                   cps     -17,sp
458F AF E1 EF                   458F AF E1 EF                   cps     -17,x
4592 AF E9 EF                   4592 AF E9 EF                   cps     -17,y
4595 AF D2                      4595 AF D2                      cps     -small,pc
4597 AF 92                      4597 AF 92                      cps     -small,sp
4599 AF 12                      4599 AF 12                      cps     -small,x
459B AF 52                      459B AF 52                      cps     -small,y
459D AF C0                      459D AF C0                      cps     0,pc
459F AF 80                      459F AF 80                      cps     0,sp
45A1 AF 00                      45A1 AF 00                      cps     0,x
45A3 AF 40                      45A3 AF 40                      cps     0,y
45A5 AF B0                      45A5 AF B0                      cps     1,sp+
45A7 AF 30                      45A7 AF 30                      cps     1,x+
45A9 AF 70                      45A9 AF 70                      cps     1,y+
45AB AF 81                      45AB AF 81                      cps     1,sp
45AD AF 01                      45AD AF 01                      cps     1,x
45AF AF 41                      45AF AF 41                      cps     1,y
45B1 AF BF                      45B1 AF BF                      cps     1,sp-
45B3 AF 3F                      45B3 AF 3F                      cps     1,x-
45B5 AF 7F                      45B5 AF 7F                      cps     1,y-
45B7 AF F8 7D                   45B7 AF F8 7D                   cps     125,pc
45BA AF F0 7D                   45BA AF F0 7D                   cps     125,sp
45BD AF E0 7D                   45BD AF E0 7D                   cps     125,x
45C0 AF E8 7D                   45C0 AF E8 7D                   cps     125,y
45C3 AF 8F                      45C3 AF 8F                      cps     15,sp
45C5 AF 0F                      45C5 AF 0F                      cps     15,x
45C7 AF 4F                      45C7 AF 4F                      cps     15,y
45C9 AF F0 10                   45C9 AF F0 10                   cps     16,sp
45CC AF E0 10                   45CC AF E0 10                   cps     16,x
45CF AF E8 10                   45CF AF E8 10                   cps     16,y
45D2 AF B7                      45D2 AF B7                      cps     8,sp+
45D4 AF 37                      45D4 AF 37                      cps     8,x+
45D6 AF 77                      45D6 AF 77                      cps     8,y+
45D8 AF B8                      45D8 AF B8                      cps     8,sp-
45DA AF 38                      45DA AF 38                      cps     8,x-
45DC AF 78                      45DC AF 78                      cps     8,y-
45DE AF F4                      45DE AF F4                      cps     a,sp
45E0 AF E4                      45E0 AF E4                      cps     a,x
45E2 AF EC                      45E2 AF EC                      cps     a,y
45E4 AF F5                      45E4 AF F5                      cps     b,sp
45E6 AF E5                      45E6 AF E5                      cps     b,x
45E8 AF ED                      45E8 AF ED                      cps     b,y
45EA AF F6                      45EA AF F6                      cps     d,sp
45EC AF E6                      45EC AF E6                      cps     d,x
45EE AF EE                      45EE AF EE                      cps     d,y
45F0 9F 55                      45F0 9F 55                      cps     dir
45F2 9F 55                      45F2 9F 55                      cps     dir
45F4 BF 12 34                   45F4 BF 12 34                   cps     ext
45F7 BF 12 34                   45F7 BF 12 34                   cps     ext
45FA AF F2 12 34                45FA AF F2 12 34                cps     ext,sp
45FE AF E2 12 34                45FE AF E2 12 34                cps     ext,x
4602 AF EA 12 34                4602 AF EA 12 34                cps     ext,y
4606 AF F8 37                   4606 AF F8 37                   cps     ind,pc
4609 AF F0 37                   4609 AF F0 37                   cps     ind,sp
460C AF E0 37                   460C AF E0 37                   cps     ind,x
460F AF E8 37                   460F AF E8 37                   cps     ind,y
4612 AF CE                      4612 AF CE                      cps     small,pc
4614 AF 8E                      4614 AF 8E                      cps     small,sp
4616 AF 0E                      4616 AF 0E                      cps     small,x
4618 AF 4E                      4618 AF 4E                      cps     small,y
461A 8E 00 72                   461A 8E 00 72                   cpx     #immed
461D 8E 00 72                   461D 8E 00 72                   cpx     #immed
4620 AE A0                      4620 AE A0                      cpx     1,+sp
4622 AE 20                      4622 AE 20                      cpx     1,+x
4624 AE 60                      4624 AE 60                      cpx     1,+y
4626 AE A7                      4626 AE A7                      cpx     8,+sp
4628 AE 27                      4628 AE 27                      cpx     8,+x
462A AE 67                      462A AE 67                      cpx     8,+y
462C AE C0                      462C AE C0                      cpx     ,pc
462E AE 80                      462E AE 80                      cpx     ,sp
4630 AE 00                      4630 AE 00                      cpx     ,x
4632 AE 40                      4632 AE 40                      cpx     ,y
4634 AE AF                      4634 AE AF                      cpx     1,-sp
4636 AE 2F                      4636 AE 2F                      cpx     1,-x
4638 AE 6F                      4638 AE 6F                      cpx     1,-y
463A AE A8                      463A AE A8                      cpx     8,-sp
463C AE 28                      463C AE 28                      cpx     8,-x
463E AE 68                      463E AE 68                      cpx     8,-y
4640 AE 9F                      4640 AE 9F                      cpx     -1,sp
4642 AE 1F                      4642 AE 1F                      cpx     -1,x
4644 AE 5F                      4644 AE 5F                      cpx     -1,y
4646 AE 90                      4646 AE 90                      cpx     -16,sp
4648 AE 10                      4648 AE 10                      cpx     -16,x
464A AE 50                      464A AE 50                      cpx     -16,y
464C AE F1 EF                   464C AE F1 EF                   cpx     -17,sp
464F AE E1 EF                   464F AE E1 EF                   cpx     -17,x
4652 AE E9 EF                   4652 AE E9 EF                   cpx     -17,y
4655 AE D2                      4655 AE D2                      cpx     -small,pc
4657 AE 92                      4657 AE 92                      cpx     -small,sp
4659 AE 12                      4659 AE 12                      cpx     -small,x
465B AE 52                      465B AE 52                      cpx     -small,y
465D AE C0                      465D AE C0                      cpx     0,pc
465F AE 80                      465F AE 80                      cpx     0,sp
4661 AE 00                      4661 AE 00                      cpx     0,x
4663 AE 40                      4663 AE 40                      cpx     0,y
4665 AE B0                      4665 AE B0                      cpx     1,sp+
4667 AE 30                      4667 AE 30                      cpx     1,x+
4669 AE 70                      4669 AE 70                      cpx     1,y+
466B AE 81                      466B AE 81                      cpx     1,sp
466D AE 01                      466D AE 01                      cpx     1,x
466F AE 41                      466F AE 41                      cpx     1,y
4671 AE BF                      4671 AE BF                      cpx     1,sp-
4673 AE 3F                      4673 AE 3F                      cpx     1,x-
4675 AE 7F                      4675 AE 7F                      cpx     1,y-
4677 AE F8 7D                   4677 AE F8 7D                   cpx     125,pc
467A AE F0 7D                   467A AE F0 7D                   cpx     125,sp
467D AE E0 7D                   467D AE E0 7D                   cpx     125,x
4680 AE E8 7D                   4680 AE E8 7D                   cpx     125,y
4683 AE 8F                      4683 AE 8F                      cpx     15,sp
4685 AE 0F                      4685 AE 0F                      cpx     15,x
4687 AE 4F                      4687 AE 4F                      cpx     15,y
4689 AE F0 10                   4689 AE F0 10                   cpx     16,sp
468C AE E0 10                   468C AE E0 10                   cpx     16,x
468F AE E8 10                   468F AE E8 10                   cpx     16,y
4692 AE B7                      4692 AE B7                      cpx     8,sp+
4694 AE 37                      4694 AE 37                      cpx     8,x+
4696 AE 77                      4696 AE 77                      cpx     8,y+
4698 AE B8                      4698 AE B8                      cpx     8,sp-
469A AE 38                      469A AE 38                      cpx     8,x-
469C AE 78                      469C AE 78                      cpx     8,y-
469E AE F4                      469E AE F4                      cpx     a,sp
46A0 AE E4                      46A0 AE E4                      cpx     a,x
46A2 AE EC                      46A2 AE EC                      cpx     a,y
46A4 AE F5                      46A4 AE F5                      cpx     b,sp
46A6 AE E5                      46A6 AE E5                      cpx     b,x
46A8 AE ED                      46A8 AE ED                      cpx     b,y
46AA AE F6                      46AA AE F6                      cpx     d,sp
46AC AE E6                      46AC AE E6                      cpx     d,x
46AE AE EE                      46AE AE EE                      cpx     d,y
46B0 9E 55                      46B0 9E 55                      cpx     dir
46B2 9E 55                      46B2 9E 55                      cpx     dir
46B4 BE 12 34                   46B4 BE 12 34                   cpx     ext
46B7 BE 12 34                   46B7 BE 12 34                   cpx     ext
46BA AE F2 12 34                46BA AE F2 12 34                cpx     ext,sp
46BE AE E2 12 34                46BE AE E2 12 34                cpx     ext,x
46C2 AE EA 12 34                46C2 AE EA 12 34                cpx     ext,y
46C6 AE F8 37                   46C6 AE F8 37                   cpx     ind,pc
46C9 AE F0 37                   46C9 AE F0 37                   cpx     ind,sp
46CC AE E0 37                   46CC AE E0 37                   cpx     ind,x
46CF AE E8 37                   46CF AE E8 37                   cpx     ind,y
46D2 AE CE                      46D2 AE CE                      cpx     small,pc
46D4 AE 8E                      46D4 AE 8E                      cpx     small,sp
46D6 AE 0E                      46D6 AE 0E                      cpx     small,x
46D8 AE 4E                      46D8 AE 4E                      cpx     small,y
46DA 8D 00 72                   46DA 8D 00 72                   cpy     #immed
46DD 8D 00 72                   46DD 8D 00 72                   cpy     #immed
46E0 AD A0                      46E0 AD A0                      cpy     1,+sp
46E2 AD 20                      46E2 AD 20                      cpy     1,+x
46E4 AD 60                      46E4 AD 60                      cpy     1,+y
46E6 AD A7                      46E6 AD A7                      cpy     8,+sp
46E8 AD 27                      46E8 AD 27                      cpy     8,+x
46EA AD 67                      46EA AD 67                      cpy     8,+y
46EC AD C0                      46EC AD C0                      cpy     ,pc
46EE AD 80                      46EE AD 80                      cpy     ,sp
46F0 AD 00                      46F0 AD 00                      cpy     ,x
46F2 AD 40                      46F2 AD 40                      cpy     ,y
46F4 AD AF                      46F4 AD AF                      cpy     1,-sp
46F6 AD 2F                      46F6 AD 2F                      cpy     1,-x
46F8 AD 6F                      46F8 AD 6F                      cpy     1,-y
46FA AD A8                      46FA AD A8                      cpy     8,-sp
46FC AD 28                      46FC AD 28                      cpy     8,-x
46FE AD 68                      46FE AD 68                      cpy     8,-y
4700 AD 9F                      4700 AD 9F                      cpy     -1,sp
4702 AD 1F                      4702 AD 1F                      cpy     -1,x
4704 AD 5F                      4704 AD 5F                      cpy     -1,y
4706 AD 90                      4706 AD 90                      cpy     -16,sp
4708 AD 10                      4708 AD 10                      cpy     -16,x
470A AD 50                      470A AD 50                      cpy     -16,y
470C AD F1 EF                   470C AD F1 EF                   cpy     -17,sp
470F AD E1 EF                   470F AD E1 EF                   cpy     -17,x
4712 AD E9 EF                   4712 AD E9 EF                   cpy     -17,y
4715 AD D2                      4715 AD D2                      cpy     -small,pc
4717 AD 92                      4717 AD 92                      cpy     -small,sp
4719 AD 12                      4719 AD 12                      cpy     -small,x
471B AD 52                      471B AD 52                      cpy     -small,y
471D AD C0                      471D AD C0                      cpy     0,pc
471F AD 80                      471F AD 80                      cpy     0,sp
4721 AD 00                      4721 AD 00                      cpy     0,x
4723 AD 40                      4723 AD 40                      cpy     0,y
4725 AD B0                      4725 AD B0                      cpy     1,sp+
4727 AD 30                      4727 AD 30                      cpy     1,x+
4729 AD 70                      4729 AD 70                      cpy     1,y+
472B AD 81                      472B AD 81                      cpy     1,sp
472D AD 01                      472D AD 01                      cpy     1,x
472F AD 41                      472F AD 41                      cpy     1,y
4731 AD BF                      4731 AD BF                      cpy     1,sp-
4733 AD 3F                      4733 AD 3F                      cpy     1,x-
4735 AD 7F                      4735 AD 7F                      cpy     1,y-
4737 AD F8 7D                   4737 AD F8 7D                   cpy     125,pc
473A AD F0 7D                   473A AD F0 7D                   cpy     125,sp
473D AD E0 7D                   473D AD E0 7D                   cpy     125,x
4740 AD E8 7D                   4740 AD E8 7D                   cpy     125,y
4743 AD 8F                      4743 AD 8F                      cpy     15,sp
4745 AD 0F                      4745 AD 0F                      cpy     15,x
4747 AD 4F                      4747 AD 4F                      cpy     15,y
4749 AD F0 10                   4749 AD F0 10                   cpy     16,sp
474C AD E0 10                   474C AD E0 10                   cpy     16,x
474F AD E8 10                   474F AD E8 10                   cpy     16,y
4752 AD B7                      4752 AD B7                      cpy     8,sp+
4754 AD 37                      4754 AD 37                      cpy     8,x+
4756 AD 77                      4756 AD 77                      cpy     8,y+
4758 AD B8                      4758 AD B8                      cpy     8,sp-
475A AD 38                      475A AD 38                      cpy     8,x-
475C AD 78                      475C AD 78                      cpy     8,y-
475E AD F4                      475E AD F4                      cpy     a,sp
4760 AD E4                      4760 AD E4                      cpy     a,x
4762 AD EC                      4762 AD EC                      cpy     a,y
4764 AD F5                      4764 AD F5                      cpy     b,sp
4766 AD E5                      4766 AD E5                      cpy     b,x
4768 AD ED                      4768 AD ED                      cpy     b,y
476A AD F6                      476A AD F6                      cpy     d,sp
476C AD E6                      476C AD E6                      cpy     d,x
476E AD EE                      476E AD EE                      cpy     d,y
4770 9D 55                      4770 9D 55                      cpy     dir
4772 9D 55                      4772 9D 55                      cpy     dir
4774 BD 12 34                   4774 BD 12 34                   cpy     ext
4777 BD 12 34                   4777 BD 12 34                   cpy     ext
477A AD F2 12 34                477A AD F2 12 34                cpy     ext,sp
477E AD E2 12 34                477E AD E2 12 34                cpy     ext,x
4782 AD EA 12 34                4782 AD EA 12 34                cpy     ext,y
4786 AD F8 37                   4786 AD F8 37                   cpy     ind,pc
4789 AD F0 37                   4789 AD F0 37                   cpy     ind,sp
478C AD E0 37                   478C AD E0 37                   cpy     ind,x
478F AD E8 37                   478F AD E8 37                   cpy     ind,y
4792 AD CE                      4792 AD CE                      cpy     small,pc
4794 AD 8E                      4794 AD 8E                      cpy     small,sp
4796 AD 0E                      4796 AD 0E                      cpy     small,x
4798 AD 4E                      4798 AD 4E                      cpy     small,y
479A 18 07                      479A 18 07                      daa
479C 04 30 FD                   479C 04 30 FD                   dbne    a, *
479F 04 31 FD                   479F 04 31 FD                   dbne    b, *
47A2 04 35 FD                   47A2 04 35 FD                   dbne    x, *
47A5 04 36 FD                   47A5 04 36 FD                   dbne    y, *
47A8 63 A0                      47A8 63 A0                      dec     1,+sp
47AA 63 20                      47AA 63 20                      dec     1,+x
47AC 63 60                      47AC 63 60                      dec     1,+y
47AE 63 A7                      47AE 63 A7                      dec     8,+sp
47B0 63 27                      47B0 63 27                      dec     8,+x
47B2 63 67                      47B2 63 67                      dec     8,+y
47B4 63 C0                      47B4 63 C0                      dec     ,pc
47B6 63 80                      47B6 63 80                      dec     ,sp
47B8 63 00                      47B8 63 00                      dec     ,x
47BA 63 40                      47BA 63 40                      dec     ,y
47BC 63 AF                      47BC 63 AF                      dec     1,-sp
47BE 63 2F                      47BE 63 2F                      dec     1,-x
47C0 63 6F                      47C0 63 6F                      dec     1,-y
47C2 63 A8                      47C2 63 A8                      dec     8,-sp
47C4 63 28                      47C4 63 28                      dec     8,-x
47C6 63 68                      47C6 63 68                      dec     8,-y
47C8 63 9F                      47C8 63 9F                      dec     -1,sp
47CA 63 1F                      47CA 63 1F                      dec     -1,x
47CC 63 5F                      47CC 63 5F                      dec     -1,y
47CE 63 90                      47CE 63 90                      dec     -16,sp
47D0 63 10                      47D0 63 10                      dec     -16,x
47D2 63 50                      47D2 63 50                      dec     -16,y
47D4 63 F1 EF                   47D4 63 F1 EF                   dec     -17,sp
47D7 63 E1 EF                   47D7 63 E1 EF                   dec     -17,x
47DA 63 E9 EF                   47DA 63 E9 EF                   dec     -17,y
47DD 63 D2                      47DD 63 D2                      dec     -small,pc
47DF 63 92                      47DF 63 92                      dec     -small,sp
47E1 63 12                      47E1 63 12                      dec     -small,x
47E3 63 52                      47E3 63 52                      dec     -small,y
47E5 63 C0                      47E5 63 C0                      dec     0,pc
47E7 63 80                      47E7 63 80                      dec     0,sp
47E9 63 00                      47E9 63 00                      dec     0,x
47EB 63 40                      47EB 63 40                      dec     0,y
47ED 63 B0                      47ED 63 B0                      dec     1,sp+
47EF 63 30                      47EF 63 30                      dec     1,x+
47F1 63 70                      47F1 63 70                      dec     1,y+
47F3 63 81                      47F3 63 81                      dec     1,sp
47F5 63 01                      47F5 63 01                      dec     1,x
47F7 63 41                      47F7 63 41                      dec     1,y
47F9 63 BF                      47F9 63 BF                      dec     1,sp-
47FB 63 3F                      47FB 63 3F                      dec     1,x-
47FD 63 7F                      47FD 63 7F                      dec     1,y-
47FF 63 F8 7D                   47FF 63 F8 7D                   dec     125,pc
4802 63 F0 7D                   4802 63 F0 7D                   dec     125,sp
4805 63 E0 7D                   4805 63 E0 7D                   dec     125,x
4808 63 E8 7D                   4808 63 E8 7D                   dec     125,y
480B 63 8F                      480B 63 8F                      dec     15,sp
480D 63 0F                      480D 63 0F                      dec     15,x
480F 63 4F                      480F 63 4F                      dec     15,y
4811 63 F0 10                   4811 63 F0 10                   dec     16,sp
4814 63 E0 10                   4814 63 E0 10                   dec     16,x
4817 63 E8 10                   4817 63 E8 10                   dec     16,y
481A 63 B7                      481A 63 B7                      dec     8,sp+
481C 63 37                      481C 63 37                      dec     8,x+
481E 63 77                      481E 63 77                      dec     8,y+
4820 63 B8                      4820 63 B8                      dec     8,sp-
4822 63 38                      4822 63 38                      dec     8,x-
4824 63 78                      4824 63 78                      dec     8,y-
4826 63 F4                      4826 63 F4                      dec     a,sp
4828 63 E4                      4828 63 E4                      dec     a,x
482A 63 EC                      482A 63 EC                      dec     a,y
482C 63 F5                      482C 63 F5                      dec     b,sp
482E 63 E5                      482E 63 E5                      dec     b,x
4830 63 ED                      4830 63 ED                      dec     b,y
4832 63 F6                      4832 63 F6                      dec     d,sp
4834 63 E6                      4834 63 E6                      dec     d,x
4836 63 EE                      4836 63 EE                      dec     d,y
4838 73 00 55                   4838 73 00 55                   dec     dir
483B 73 12 34                   483B 73 12 34                   dec     ext
483E 73 12 34                   483E 73 12 34                   dec     ext
4841 63 F2 12 34                4841 63 F2 12 34                dec     ext,sp
4845 63 E2 12 34                4845 63 E2 12 34                dec     ext,x
4849 63 EA 12 34                4849 63 EA 12 34                dec     ext,y
484D 63 F8 37                   484D 63 F8 37                   dec     ind,pc
4850 63 F0 37                   4850 63 F0 37                   dec     ind,sp
4853 63 E0 37                   4853 63 E0 37                   dec     ind,x
4856 63 E8 37                   4856 63 E8 37                   dec     ind,y
4859 63 CE                      4859 63 CE                      dec     small,pc
485B 63 8E                      485B 63 8E                      dec     small,sp
485D 63 0E                      485D 63 0E                      dec     small,x
485F 63 4E                      485F 63 4E                      dec     small,y
4861 43                         4861 43                         deca
4862 53                         4862 53                         decb
4863 1B 9F                      4863 1B 9F                      des
4865 09                         4865 09                         dex
4866 03                         4866 03                         dey
4867 11                         4867 11                         ediv
4868 18 14                      4868 18 14                      edivs
486A 18 12 00 55                486A 18 12 00 55                emacs   dir
486E 18 12 12 34                486E 18 12 12 34                emacs   ext
4872 18 12 00 0E                4872 18 12 00 0E                emacs   small
4876 18 1A A0                   4876 18 1A A0                   emaxd   1,+sp
4879 18 1A 20                   4879 18 1A 20                   emaxd   1,+x
487C 18 1A 60                   487C 18 1A 60                   emaxd   1,+y
487F 18 1A A7                   487F 18 1A A7                   emaxd   8,+sp
4882 18 1A 27                   4882 18 1A 27                   emaxd   8,+x
4885 18 1A 67                   4885 18 1A 67                   emaxd   8,+y
4888 18 1A C0                   4888 18 1A C0                   emaxd   ,pc
488B 18 1A 80                   488B 18 1A 80                   emaxd   ,sp
488E 18 1A 00                   488E 18 1A 00                   emaxd   ,x
4891 18 1A 40                   4891 18 1A 40                   emaxd   ,y
4894 18 1A AF                   4894 18 1A AF                   emaxd   1,-sp
4897 18 1A 2F                   4897 18 1A 2F                   emaxd   1,-x
489A 18 1A 6F                   489A 18 1A 6F                   emaxd   1,-y
489D 18 1A A8                   489D 18 1A A8                   emaxd   8,-sp
48A0 18 1A 28                   48A0 18 1A 28                   emaxd   8,-x
48A3 18 1A 68                   48A3 18 1A 68                   emaxd   8,-y
48A6 18 1A 9F                   48A6 18 1A 9F                   emaxd   -1,sp
48A9 18 1A 1F                   48A9 18 1A 1F                   emaxd   -1,x
48AC 18 1A 5F                   48AC 18 1A 5F                   emaxd   -1,y
48AF 18 1A 90                   48AF 18 1A 90                   emaxd   -16,sp
48B2 18 1A 10                   48B2 18 1A 10                   emaxd   -16,x
48B5 18 1A 50                   48B5 18 1A 50                   emaxd   -16,y
48B8 18 1A F1 EF                48B8 18 1A F1 EF                emaxd   -17,sp
48BC 18 1A E1 EF                48BC 18 1A E1 EF                emaxd   -17,x
48C0 18 1A E9 EF                48C0 18 1A E9 EF                emaxd   -17,y
48C4 18 1A D2                   48C4 18 1A D2                   emaxd   -small,pc
48C7 18 1A 92                   48C7 18 1A 92                   emaxd   -small,sp
48CA 18 1A 12                   48CA 18 1A 12                   emaxd   -small,x
48CD 18 1A 52                   48CD 18 1A 52                   emaxd   -small,y
48D0 18 1A C0                   48D0 18 1A C0                   emaxd   0,pc
48D3 18 1A 80                   48D3 18 1A 80                   emaxd   0,sp
48D6 18 1A 00                   48D6 18 1A 00                   emaxd   0,x
48D9 18 1A 40                   48D9 18 1A 40                   emaxd   0,y
48DC 18 1A B0                   48DC 18 1A B0                   emaxd   1,sp+
48DF 18 1A 30                   48DF 18 1A 30                   emaxd   1,x+
48E2 18 1A 70                   48E2 18 1A 70                   emaxd   1,y+
48E5 18 1A 81                   48E5 18 1A 81                   emaxd   1,sp
48E8 18 1A 01                   48E8 18 1A 01                   emaxd   1,x
48EB 18 1A 41                   48EB 18 1A 41                   emaxd   1,y
48EE 18 1A BF                   48EE 18 1A BF                   emaxd   1,sp-
48F1 18 1A 3F                   48F1 18 1A 3F                   emaxd   1,x-
48F4 18 1A 7F                   48F4 18 1A 7F                   emaxd   1,y-
48F7 18 1A F8 7D                48F7 18 1A F8 7D                emaxd   125,pc
48FB 18 1A F0 7D                48FB 18 1A F0 7D                emaxd   125,sp
48FF 18 1A E0 7D                48FF 18 1A E0 7D                emaxd   125,x
4903 18 1A E8 7D                4903 18 1A E8 7D                emaxd   125,y
4907 18 1A 8F                   4907 18 1A 8F                   emaxd   15,sp
490A 18 1A 0F                   490A 18 1A 0F                   emaxd   15,x
490D 18 1A 4F                   490D 18 1A 4F                   emaxd   15,y
4910 18 1A F0 10                4910 18 1A F0 10                emaxd   16,sp
4914 18 1A E0 10                4914 18 1A E0 10                emaxd   16,x
4918 18 1A E8 10                4918 18 1A E8 10                emaxd   16,y
491C 18 1A B7                   491C 18 1A B7                   emaxd   8,sp+
491F 18 1A 37                   491F 18 1A 37                   emaxd   8,x+
4922 18 1A 77                   4922 18 1A 77                   emaxd   8,y+
4925 18 1A B8                   4925 18 1A B8                   emaxd   8,sp-
4928 18 1A 38                   4928 18 1A 38                   emaxd   8,x-
492B 18 1A 78                   492B 18 1A 78                   emaxd   8,y-
492E 18 1A F4                   492E 18 1A F4                   emaxd   a,sp
4931 18 1A E4                   4931 18 1A E4                   emaxd   a,x
4934 18 1A EC                   4934 18 1A EC                   emaxd   a,y
4937 18 1A F5                   4937 18 1A F5                   emaxd   b,sp
493A 18 1A E5                   493A 18 1A E5                   emaxd   b,x
493D 18 1A ED                   493D 18 1A ED                   emaxd   b,y
4940 18 1A F6                   4940 18 1A F6                   emaxd   d,sp
4943 18 1A E6                   4943 18 1A E6                   emaxd   d,x
4946 18 1A EE                   4946 18 1A EE                   emaxd   d,y
4949 18 1A F2 12 34             4949 18 1A F2 12 34             emaxd   ext,sp
494E 18 1A E2 12 34             494E 18 1A E2 12 34             emaxd   ext,x
4953 18 1A EA 12 34             4953 18 1A EA 12 34             emaxd   ext,y
4958 18 1A F8 37                4958 18 1A F8 37                emaxd   ind,pc
495C 18 1A F0 37                495C 18 1A F0 37                emaxd   ind,sp
4960 18 1A E0 37                4960 18 1A E0 37                emaxd   ind,x
4964 18 1A E8 37                4964 18 1A E8 37                emaxd   ind,y
4968 18 1A CE                   4968 18 1A CE                   emaxd   small,pc
496B 18 1A 8E                   496B 18 1A 8E                   emaxd   small,sp
496E 18 1A 0E                   496E 18 1A 0E                   emaxd   small,x
4971 18 1A 4E                   4971 18 1A 4E                   emaxd   small,y
4974 18 1E A0                   4974 18 1E A0                   emaxm   1,+sp
4977 18 1E 20                   4977 18 1E 20                   emaxm   1,+x
497A 18 1E 60                   497A 18 1E 60                   emaxm   1,+y
497D 18 1E A7                   497D 18 1E A7                   emaxm   8,+sp
4980 18 1E 27                   4980 18 1E 27                   emaxm   8,+x
4983 18 1E 67                   4983 18 1E 67                   emaxm   8,+y
4986 18 1E C0                   4986 18 1E C0                   emaxm   ,pc
4989 18 1E 80                   4989 18 1E 80                   emaxm   ,sp
498C 18 1E 00                   498C 18 1E 00                   emaxm   ,x
498F 18 1E 40                   498F 18 1E 40                   emaxm   ,y
4992 18 1E AF                   4992 18 1E AF                   emaxm   1,-sp
4995 18 1E 2F                   4995 18 1E 2F                   emaxm   1,-x
4998 18 1E 6F                   4998 18 1E 6F                   emaxm   1,-y
499B 18 1E A8                   499B 18 1E A8                   emaxm   8,-sp
499E 18 1E 28                   499E 18 1E 28                   emaxm   8,-x
49A1 18 1E 68                   49A1 18 1E 68                   emaxm   8,-y
49A4 18 1E 9F                   49A4 18 1E 9F                   emaxm   -1,sp
49A7 18 1E 1F                   49A7 18 1E 1F                   emaxm   -1,x
49AA 18 1E 5F                   49AA 18 1E 5F                   emaxm   -1,y
49AD 18 1E 90                   49AD 18 1E 90                   emaxm   -16,sp
49B0 18 1E 10                   49B0 18 1E 10                   emaxm   -16,x
49B3 18 1E 50                   49B3 18 1E 50                   emaxm   -16,y
49B6 18 1E F1 EF                49B6 18 1E F1 EF                emaxm   -17,sp
49BA 18 1E E1 EF                49BA 18 1E E1 EF                emaxm   -17,x
49BE 18 1E E9 EF                49BE 18 1E E9 EF                emaxm   -17,y
49C2 18 1E D2                   49C2 18 1E D2                   emaxm   -small,pc
49C5 18 1E 92                   49C5 18 1E 92                   emaxm   -small,sp
49C8 18 1E 12                   49C8 18 1E 12                   emaxm   -small,x
49CB 18 1E 52                   49CB 18 1E 52                   emaxm   -small,y
49CE 18 1E C0                   49CE 18 1E C0                   emaxm   0,pc
49D1 18 1E 80                   49D1 18 1E 80                   emaxm   0,sp
49D4 18 1E 00                   49D4 18 1E 00                   emaxm   0,x
49D7 18 1E 40                   49D7 18 1E 40                   emaxm   0,y
49DA 18 1E B0                   49DA 18 1E B0                   emaxm   1,sp+
49DD 18 1E 30                   49DD 18 1E 30                   emaxm   1,x+
49E0 18 1E 70                   49E0 18 1E 70                   emaxm   1,y+
49E3 18 1E 81                   49E3 18 1E 81                   emaxm   1,sp
49E6 18 1E 01                   49E6 18 1E 01                   emaxm   1,x
49E9 18 1E 41                   49E9 18 1E 41                   emaxm   1,y
49EC 18 1E BF                   49EC 18 1E BF                   emaxm   1,sp-
49EF 18 1E 3F                   49EF 18 1E 3F                   emaxm   1,x-
49F2 18 1E 7F                   49F2 18 1E 7F                   emaxm   1,y-
49F5 18 1E F8 7D                49F5 18 1E F8 7D                emaxm   125,pc
49F9 18 1E F0 7D                49F9 18 1E F0 7D                emaxm   125,sp
49FD 18 1E E0 7D                49FD 18 1E E0 7D                emaxm   125,x
4A01 18 1E E8 7D                4A01 18 1E E8 7D                emaxm   125,y
4A05 18 1E 8F                   4A05 18 1E 8F                   emaxm   15,sp
4A08 18 1E 0F                   4A08 18 1E 0F                   emaxm   15,x
4A0B 18 1E 4F                   4A0B 18 1E 4F                   emaxm   15,y
4A0E 18 1E F0 10                4A0E 18 1E F0 10                emaxm   16,sp
4A12 18 1E E0 10                4A12 18 1E E0 10                emaxm   16,x
4A16 18 1E E8 10                4A16 18 1E E8 10                emaxm   16,y
4A1A 18 1E B7                   4A1A 18 1E B7                   emaxm   8,sp+
4A1D 18 1E 37                   4A1D 18 1E 37                   emaxm   8,x+
4A20 18 1E 77                   4A20 18 1E 77                   emaxm   8,y+
4A23 18 1E B8                   4A23 18 1E B8                   emaxm   8,sp-
4A26 18 1E 38                   4A26 18 1E 38                   emaxm   8,x-
4A29 18 1E 78                   4A29 18 1E 78                   emaxm   8,y-
4A2C 18 1E F4                   4A2C 18 1E F4                   emaxm   a,sp
4A2F 18 1E E4                   4A2F 18 1E E4                   emaxm   a,x
4A32 18 1E EC                   4A32 18 1E EC                   emaxm   a,y
4A35 18 1E F5                   4A35 18 1E F5                   emaxm   b,sp
4A38 18 1E E5                   4A38 18 1E E5                   emaxm   b,x
4A3B 18 1E ED                   4A3B 18 1E ED                   emaxm   b,y
4A3E 18 1E F6                   4A3E 18 1E F6                   emaxm   d,sp
4A41 18 1E E6                   4A41 18 1E E6                   emaxm   d,x
4A44 18 1E EE                   4A44 18 1E EE                   emaxm   d,y
4A47 18 1E F2 12 34             4A47 18 1E F2 12 34             emaxm   ext,sp
4A4C 18 1E E2 12 34             4A4C 18 1E E2 12 34             emaxm   ext,x
4A51 18 1E EA 12 34             4A51 18 1E EA 12 34             emaxm   ext,y
4A56 18 1E F8 37                4A56 18 1E F8 37                emaxm   ind,pc
4A5A 18 1E F0 37                4A5A 18 1E F0 37                emaxm   ind,sp
4A5E 18 1E E0 37                4A5E 18 1E E0 37                emaxm   ind,x
4A62 18 1E E8 37                4A62 18 1E E8 37                emaxm   ind,y
4A66 18 1E CE                   4A66 18 1E CE                   emaxm   small,pc
4A69 18 1E 8E                   4A69 18 1E 8E                   emaxm   small,sp
4A6C 18 1E 0E                   4A6C 18 1E 0E                   emaxm   small,x
4A6F 18 1E 4E                   4A6F 18 1E 4E                   emaxm   small,y
4A72 18 1B A0                   4A72 18 1B A0                   emind   1,+sp
4A75 18 1B 20                   4A75 18 1B 20                   emind   1,+x
4A78 18 1B 60                   4A78 18 1B 60                   emind   1,+y
4A7B 18 1B A7                   4A7B 18 1B A7                   emind   8,+sp
4A7E 18 1B 27                   4A7E 18 1B 27                   emind   8,+x
4A81 18 1B 67                   4A81 18 1B 67                   emind   8,+y
4A84 18 1B C0                   4A84 18 1B C0                   emind   ,pc
4A87 18 1B 80                   4A87 18 1B 80                   emind   ,sp
4A8A 18 1B 00                   4A8A 18 1B 00                   emind   ,x
4A8D 18 1B 40                   4A8D 18 1B 40                   emind   ,y
4A90 18 1B AF                   4A90 18 1B AF                   emind   1,-sp
4A93 18 1B 2F                   4A93 18 1B 2F                   emind   1,-x
4A96 18 1B 6F                   4A96 18 1B 6F                   emind   1,-y
4A99 18 1B A8                   4A99 18 1B A8                   emind   8,-sp
4A9C 18 1B 28                   4A9C 18 1B 28                   emind   8,-x
4A9F 18 1B 68                   4A9F 18 1B 68                   emind   8,-y
4AA2 18 1B 9F                   4AA2 18 1B 9F                   emind   -1,sp
4AA5 18 1B 1F                   4AA5 18 1B 1F                   emind   -1,x
4AA8 18 1B 5F                   4AA8 18 1B 5F                   emind   -1,y
4AAB 18 1B 90                   4AAB 18 1B 90                   emind   -16,sp
4AAE 18 1B 10                   4AAE 18 1B 10                   emind   -16,x
4AB1 18 1B 50                   4AB1 18 1B 50                   emind   -16,y
4AB4 18 1B F1 EF                4AB4 18 1B F1 EF                emind   -17,sp
4AB8 18 1B E1 EF                4AB8 18 1B E1 EF                emind   -17,x
4ABC 18 1B E9 EF                4ABC 18 1B E9 EF                emind   -17,y
4AC0 18 1B D2                   4AC0 18 1B D2                   emind   -small,pc
4AC3 18 1B 92                   4AC3 18 1B 92                   emind   -small,sp
4AC6 18 1B 12                   4AC6 18 1B 12                   emind   -small,x
4AC9 18 1B 52                   4AC9 18 1B 52                   emind   -small,y
4ACC 18 1B C0                   4ACC 18 1B C0                   emind   0,pc
4ACF 18 1B 80                   4ACF 18 1B 80                   emind   0,sp
4AD2 18 1B 00                   4AD2 18 1B 00                   emind   0,x
4AD5 18 1B 40                   4AD5 18 1B 40                   emind   0,y
4AD8 18 1B B0                   4AD8 18 1B B0                   emind   1,sp+
4ADB 18 1B 30                   4ADB 18 1B 30                   emind   1,x+
4ADE 18 1B 70                   4ADE 18 1B 70                   emind   1,y+
4AE1 18 1B 81                   4AE1 18 1B 81                   emind   1,sp
4AE4 18 1B 01                   4AE4 18 1B 01                   emind   1,x
4AE7 18 1B 41                   4AE7 18 1B 41                   emind   1,y
4AEA 18 1B BF                   4AEA 18 1B BF                   emind   1,sp-
4AED 18 1B 3F                   4AED 18 1B 3F                   emind   1,x-
4AF0 18 1B 7F                   4AF0 18 1B 7F                   emind   1,y-
4AF3 18 1B F8 7D                4AF3 18 1B F8 7D                emind   125,pc
4AF7 18 1B F0 7D                4AF7 18 1B F0 7D                emind   125,sp
4AFB 18 1B E0 7D                4AFB 18 1B E0 7D                emind   125,x
4AFF 18 1B E8 7D                4AFF 18 1B E8 7D                emind   125,y
4B03 18 1B 8F                   4B03 18 1B 8F                   emind   15,sp
4B06 18 1B 0F                   4B06 18 1B 0F                   emind   15,x
4B09 18 1B 4F                   4B09 18 1B 4F                   emind   15,y
4B0C 18 1B F0 10                4B0C 18 1B F0 10                emind   16,sp
4B10 18 1B E0 10                4B10 18 1B E0 10                emind   16,x
4B14 18 1B E8 10                4B14 18 1B E8 10                emind   16,y
4B18 18 1B B7                   4B18 18 1B B7                   emind   8,sp+
4B1B 18 1B 37                   4B1B 18 1B 37                   emind   8,x+
4B1E 18 1B 77                   4B1E 18 1B 77                   emind   8,y+
4B21 18 1B B8                   4B21 18 1B B8                   emind   8,sp-
4B24 18 1B 38                   4B24 18 1B 38                   emind   8,x-
4B27 18 1B 78                   4B27 18 1B 78                   emind   8,y-
4B2A 18 1B F4                   4B2A 18 1B F4                   emind   a,sp
4B2D 18 1B E4                   4B2D 18 1B E4                   emind   a,x
4B30 18 1B EC                   4B30 18 1B EC                   emind   a,y
4B33 18 1B F5                   4B33 18 1B F5                   emind   b,sp
4B36 18 1B E5                   4B36 18 1B E5                   emind   b,x
4B39 18 1B ED                   4B39 18 1B ED                   emind   b,y
4B3C 18 1B F6                   4B3C 18 1B F6                   emind   d,sp
4B3F 18 1B E6                   4B3F 18 1B E6                   emind   d,x
4B42 18 1B EE                   4B42 18 1B EE                   emind   d,y
4B45 18 1B F2 12 34             4B45 18 1B F2 12 34             emind   ext,sp
4B4A 18 1B E2 12 34             4B4A 18 1B E2 12 34             emind   ext,x
4B4F 18 1B EA 12 34             4B4F 18 1B EA 12 34             emind   ext,y
4B54 18 1B F8 37                4B54 18 1B F8 37                emind   ind,pc
4B58 18 1B F0 37                4B58 18 1B F0 37                emind   ind,sp
4B5C 18 1B E0 37                4B5C 18 1B E0 37                emind   ind,x
4B60 18 1B E8 37                4B60 18 1B E8 37                emind   ind,y
4B64 18 1B CE                   4B64 18 1B CE                   emind   small,pc
4B67 18 1B 8E                   4B67 18 1B 8E                   emind   small,sp
4B6A 18 1B 0E                   4B6A 18 1B 0E                   emind   small,x
4B6D 18 1B 4E                   4B6D 18 1B 4E                   emind   small,y
4B70 18 1F A0                   4B70 18 1F A0                   eminm   1,+sp
4B73 18 1F 20                   4B73 18 1F 20                   eminm   1,+x
4B76 18 1F 60                   4B76 18 1F 60                   eminm   1,+y
4B79 18 1F A7                   4B79 18 1F A7                   eminm   8,+sp
4B7C 18 1F 27                   4B7C 18 1F 27                   eminm   8,+x
4B7F 18 1F 67                   4B7F 18 1F 67                   eminm   8,+y
4B82 18 1F C0                   4B82 18 1F C0                   eminm   ,pc
4B85 18 1F 80                   4B85 18 1F 80                   eminm   ,sp
4B88 18 1F 00                   4B88 18 1F 00                   eminm   ,x
4B8B 18 1F 40                   4B8B 18 1F 40                   eminm   ,y
4B8E 18 1F AF                   4B8E 18 1F AF                   eminm   1,-sp
4B91 18 1F 2F                   4B91 18 1F 2F                   eminm   1,-x
4B94 18 1F 6F                   4B94 18 1F 6F                   eminm   1,-y
4B97 18 1F A8                   4B97 18 1F A8                   eminm   8,-sp
4B9A 18 1F 28                   4B9A 18 1F 28                   eminm   8,-x
4B9D 18 1F 68                   4B9D 18 1F 68                   eminm   8,-y
4BA0 18 1F 9F                   4BA0 18 1F 9F                   eminm   -1,sp
4BA3 18 1F 1F                   4BA3 18 1F 1F                   eminm   -1,x
4BA6 18 1F 5F                   4BA6 18 1F 5F                   eminm   -1,y
4BA9 18 1F 90                   4BA9 18 1F 90                   eminm   -16,sp
4BAC 18 1F 10                   4BAC 18 1F 10                   eminm   -16,x
4BAF 18 1F 50                   4BAF 18 1F 50                   eminm   -16,y
4BB2 18 1F F1 EF                4BB2 18 1F F1 EF                eminm   -17,sp
4BB6 18 1F E1 EF                4BB6 18 1F E1 EF                eminm   -17,x
4BBA 18 1F E9 EF                4BBA 18 1F E9 EF                eminm   -17,y
4BBE 18 1F D2                   4BBE 18 1F D2                   eminm   -small,pc
4BC1 18 1F 92                   4BC1 18 1F 92                   eminm   -small,sp
4BC4 18 1F 12                   4BC4 18 1F 12                   eminm   -small,x
4BC7 18 1F 52                   4BC7 18 1F 52                   eminm   -small,y
4BCA 18 1F C0                   4BCA 18 1F C0                   eminm   0,pc
4BCD 18 1F 80                   4BCD 18 1F 80                   eminm   0,sp
4BD0 18 1F 00                   4BD0 18 1F 00                   eminm   0,x
4BD3 18 1F 40                   4BD3 18 1F 40                   eminm   0,y
4BD6 18 1F B0                   4BD6 18 1F B0                   eminm   1,sp+
4BD9 18 1F 30                   4BD9 18 1F 30                   eminm   1,x+
4BDC 18 1F 70                   4BDC 18 1F 70                   eminm   1,y+
4BDF 18 1F 81                   4BDF 18 1F 81                   eminm   1,sp
4BE2 18 1F 01                   4BE2 18 1F 01                   eminm   1,x
4BE5 18 1F 41                   4BE5 18 1F 41                   eminm   1,y
4BE8 18 1F BF                   4BE8 18 1F BF                   eminm   1,sp-
4BEB 18 1F 3F                   4BEB 18 1F 3F                   eminm   1,x-
4BEE 18 1F 7F                   4BEE 18 1F 7F                   eminm   1,y-
4BF1 18 1F F8 7D                4BF1 18 1F F8 7D                eminm   125,pc
4BF5 18 1F F0 7D                4BF5 18 1F F0 7D                eminm   125,sp
4BF9 18 1F E0 7D                4BF9 18 1F E0 7D                eminm   125,x
4BFD 18 1F E8 7D                4BFD 18 1F E8 7D                eminm   125,y
4C01 18 1F 8F                   4C01 18 1F 8F                   eminm   15,sp
4C04 18 1F 0F                   4C04 18 1F 0F                   eminm   15,x
4C07 18 1F 4F                   4C07 18 1F 4F                   eminm   15,y
4C0A 18 1F F0 10                4C0A 18 1F F0 10                eminm   16,sp
4C0E 18 1F E0 10                4C0E 18 1F E0 10                eminm   16,x
4C12 18 1F E8 10                4C12 18 1F E8 10                eminm   16,y
4C16 18 1F B7                   4C16 18 1F B7                   eminm   8,sp+
4C19 18 1F 37                   4C19 18 1F 37                   eminm   8,x+
4C1C 18 1F 77                   4C1C 18 1F 77                   eminm   8,y+
4C1F 18 1F B8                   4C1F 18 1F B8                   eminm   8,sp-
4C22 18 1F 38                   4C22 18 1F 38                   eminm   8,x-
4C25 18 1F 78                   4C25 18 1F 78                   eminm   8,y-
4C28 18 1F F4                   4C28 18 1F F4                   eminm   a,sp
4C2B 18 1F E4                   4C2B 18 1F E4                   eminm   a,x
4C2E 18 1F EC                   4C2E 18 1F EC                   eminm   a,y
4C31 18 1F F5                   4C31 18 1F F5                   eminm   b,sp
4C34 18 1F E5                   4C34 18 1F E5                   eminm   b,x
4C37 18 1F ED                   4C37 18 1F ED                   eminm   b,y
4C3A 18 1F F6                   4C3A 18 1F F6                   eminm   d,sp
4C3D 18 1F E6                   4C3D 18 1F E6                   eminm   d,x
4C40 18 1F EE                   4C40 18 1F EE                   eminm   d,y
4C43 18 1F F2 12 34             4C43 18 1F F2 12 34             eminm   ext,sp
4C48 18 1F E2 12 34             4C48 18 1F E2 12 34             eminm   ext,x
4C4D 18 1F EA 12 34             4C4D 18 1F EA 12 34             eminm   ext,y
4C52 18 1F F8 37                4C52 18 1F F8 37                eminm   ind,pc
4C56 18 1F F0 37                4C56 18 1F F0 37                eminm   ind,sp
4C5A 18 1F E0 37                4C5A 18 1F E0 37                eminm   ind,x
4C5E 18 1F E8 37                4C5E 18 1F E8 37                eminm   ind,y
4C62 18 1F CE                   4C62 18 1F CE                   eminm   small,pc
4C65 18 1F 8E                   4C65 18 1F 8E                   eminm   small,sp
4C68 18 1F 0E                   4C68 18 1F 0E                   eminm   small,x
4C6B 18 1F 4E                   4C6B 18 1F 4E                   eminm   small,y
4C6E 88 72                      4C6E 88 72                      eora    #immed
4C70 88 72                      4C70 88 72                      eora    #immed
4C72 A8 A0                      4C72 A8 A0                      eora    1,+sp
4C74 A8 20                      4C74 A8 20                      eora    1,+x
4C76 A8 60                      4C76 A8 60                      eora    1,+y
4C78 A8 A7                      4C78 A8 A7                      eora    8,+sp
4C7A A8 27                      4C7A A8 27                      eora    8,+x
4C7C A8 67                      4C7C A8 67                      eora    8,+y
4C7E A8 C0                      4C7E A8 C0                      eora    ,pc
4C80 A8 80                      4C80 A8 80                      eora    ,sp
4C82 A8 00                      4C82 A8 00                      eora    ,x
4C84 A8 40                      4C84 A8 40                      eora    ,y
4C86 A8 AF                      4C86 A8 AF                      eora    1,-sp
4C88 A8 2F                      4C88 A8 2F                      eora    1,-x
4C8A A8 6F                      4C8A A8 6F                      eora    1,-y
4C8C A8 A8                      4C8C A8 A8                      eora    8,-sp
4C8E A8 28                      4C8E A8 28                      eora    8,-x
4C90 A8 68                      4C90 A8 68                      eora    8,-y
4C92 A8 9F                      4C92 A8 9F                      eora    -1,sp
4C94 A8 1F                      4C94 A8 1F                      eora    -1,x
4C96 A8 5F                      4C96 A8 5F                      eora    -1,y
4C98 A8 90                      4C98 A8 90                      eora    -16,sp
4C9A A8 10                      4C9A A8 10                      eora    -16,x
4C9C A8 50                      4C9C A8 50                      eora    -16,y
4C9E A8 F1 EF                   4C9E A8 F1 EF                   eora    -17,sp
4CA1 A8 E1 EF                   4CA1 A8 E1 EF                   eora    -17,x
4CA4 A8 E9 EF                   4CA4 A8 E9 EF                   eora    -17,y
4CA7 A8 D2                      4CA7 A8 D2                      eora    -small,pc
4CA9 A8 92                      4CA9 A8 92                      eora    -small,sp
4CAB A8 12                      4CAB A8 12                      eora    -small,x
4CAD A8 52                      4CAD A8 52                      eora    -small,y
4CAF A8 C0                      4CAF A8 C0                      eora    0,pc
4CB1 A8 80                      4CB1 A8 80                      eora    0,sp
4CB3 A8 00                      4CB3 A8 00                      eora    0,x
4CB5 A8 40                      4CB5 A8 40                      eora    0,y
4CB7 A8 B0                      4CB7 A8 B0                      eora    1,sp+
4CB9 A8 30                      4CB9 A8 30                      eora    1,x+
4CBB A8 70                      4CBB A8 70                      eora    1,y+
4CBD A8 81                      4CBD A8 81                      eora    1,sp
4CBF A8 01                      4CBF A8 01                      eora    1,x
4CC1 A8 41                      4CC1 A8 41                      eora    1,y
4CC3 A8 BF                      4CC3 A8 BF                      eora    1,sp-
4CC5 A8 3F                      4CC5 A8 3F                      eora    1,x-
4CC7 A8 7F                      4CC7 A8 7F                      eora    1,y-
4CC9 A8 F8 7D                   4CC9 A8 F8 7D                   eora    125,pc
4CCC A8 F0 7D                   4CCC A8 F0 7D                   eora    125,sp
4CCF A8 E0 7D                   4CCF A8 E0 7D                   eora    125,x
4CD2 A8 E8 7D                   4CD2 A8 E8 7D                   eora    125,y
4CD5 A8 8F                      4CD5 A8 8F                      eora    15,sp
4CD7 A8 0F                      4CD7 A8 0F                      eora    15,x
4CD9 A8 4F                      4CD9 A8 4F                      eora    15,y
4CDB A8 F0 10                   4CDB A8 F0 10                   eora    16,sp
4CDE A8 E0 10                   4CDE A8 E0 10                   eora    16,x
4CE1 A8 E8 10                   4CE1 A8 E8 10                   eora    16,y
4CE4 A8 B7                      4CE4 A8 B7                      eora    8,sp+
4CE6 A8 37                      4CE6 A8 37                      eora    8,x+
4CE8 A8 77                      4CE8 A8 77                      eora    8,y+
4CEA A8 B8                      4CEA A8 B8                      eora    8,sp-
4CEC A8 38                      4CEC A8 38                      eora    8,x-
4CEE A8 78                      4CEE A8 78                      eora    8,y-
4CF0 A8 F4                      4CF0 A8 F4                      eora    a,sp
4CF2 A8 E4                      4CF2 A8 E4                      eora    a,x
4CF4 A8 EC                      4CF4 A8 EC                      eora    a,y
4CF6 A8 F5                      4CF6 A8 F5                      eora    b,sp
4CF8 A8 E5                      4CF8 A8 E5                      eora    b,x
4CFA A8 ED                      4CFA A8 ED                      eora    b,y
4CFC A8 F6                      4CFC A8 F6                      eora    d,sp
4CFE A8 E6                      4CFE A8 E6                      eora    d,x
4D00 A8 EE                      4D00 A8 EE                      eora    d,y
4D02 98 55                      4D02 98 55                      eora    dir
4D04 98 55                      4D04 98 55                      eora    dir
4D06 B8 12 34                   4D06 B8 12 34                   eora    ext
4D09 B8 12 34                   4D09 B8 12 34                   eora    ext
4D0C A8 F2 12 34                4D0C A8 F2 12 34                eora    ext,sp
4D10 A8 E2 12 34                4D10 A8 E2 12 34                eora    ext,x
4D14 A8 EA 12 34                4D14 A8 EA 12 34                eora    ext,y
4D18 A8 F8 37                   4D18 A8 F8 37                   eora    ind,pc
4D1B A8 F0 37                   4D1B A8 F0 37                   eora    ind,sp
4D1E A8 E0 37                   4D1E A8 E0 37                   eora    ind,x
4D21 A8 E8 37                   4D21 A8 E8 37                   eora    ind,y
4D24 A8 CE                      4D24 A8 CE                      eora    small,pc
4D26 A8 8E                      4D26 A8 8E                      eora    small,sp
4D28 A8 0E                      4D28 A8 0E                      eora    small,x
4D2A A8 4E                      4D2A A8 4E                      eora    small,y
4D2C C8 72                      4D2C C8 72                      eorb    #immed
4D2E C8 72                      4D2E C8 72                      eorb    #immed
4D30 E8 A0                      4D30 E8 A0                      eorb    1,+sp
4D32 E8 20                      4D32 E8 20                      eorb    1,+x
4D34 E8 60                      4D34 E8 60                      eorb    1,+y
4D36 E8 A7                      4D36 E8 A7                      eorb    8,+sp
4D38 E8 27                      4D38 E8 27                      eorb    8,+x
4D3A E8 67                      4D3A E8 67                      eorb    8,+y
4D3C E8 C0                      4D3C E8 C0                      eorb    ,pc
4D3E E8 80                      4D3E E8 80                      eorb    ,sp
4D40 E8 00                      4D40 E8 00                      eorb    ,x
4D42 E8 40                      4D42 E8 40                      eorb    ,y
4D44 E8 AF                      4D44 E8 AF                      eorb    1,-sp
4D46 E8 2F                      4D46 E8 2F                      eorb    1,-x
4D48 E8 6F                      4D48 E8 6F                      eorb    1,-y
4D4A E8 A8                      4D4A E8 A8                      eorb    8,-sp
4D4C E8 28                      4D4C E8 28                      eorb    8,-x
4D4E E8 68                      4D4E E8 68                      eorb    8,-y
4D50 E8 9F                      4D50 E8 9F                      eorb    -1,sp
4D52 E8 1F                      4D52 E8 1F                      eorb    -1,x
4D54 E8 5F                      4D54 E8 5F                      eorb    -1,y
4D56 E8 90                      4D56 E8 90                      eorb    -16,sp
4D58 E8 10                      4D58 E8 10                      eorb    -16,x
4D5A E8 50                      4D5A E8 50                      eorb    -16,y
4D5C E8 F1 EF                   4D5C E8 F1 EF                   eorb    -17,sp
4D5F E8 E1 EF                   4D5F E8 E1 EF                   eorb    -17,x
4D62 E8 E9 EF                   4D62 E8 E9 EF                   eorb    -17,y
4D65 E8 D2                      4D65 E8 D2                      eorb    -small,pc
4D67 E8 92                      4D67 E8 92                      eorb    -small,sp
4D69 E8 12                      4D69 E8 12                      eorb    -small,x
4D6B E8 52                      4D6B E8 52                      eorb    -small,y
4D6D E8 C0                      4D6D E8 C0                      eorb    0,pc
4D6F E8 80                      4D6F E8 80                      eorb    0,sp
4D71 E8 00                      4D71 E8 00                      eorb    0,x
4D73 E8 40                      4D73 E8 40                      eorb    0,y
4D75 E8 B0                      4D75 E8 B0                      eorb    1,sp+
4D77 E8 30                      4D77 E8 30                      eorb    1,x+
4D79 E8 70                      4D79 E8 70                      eorb    1,y+
4D7B E8 81                      4D7B E8 81                      eorb    1,sp
4D7D E8 01                      4D7D E8 01                      eorb    1,x
4D7F E8 41                      4D7F E8 41                      eorb    1,y
4D81 E8 BF                      4D81 E8 BF                      eorb    1,sp-
4D83 E8 3F                      4D83 E8 3F                      eorb    1,x-
4D85 E8 7F                      4D85 E8 7F                      eorb    1,y-
4D87 E8 F8 7D                   4D87 E8 F8 7D                   eorb    125,pc
4D8A E8 F0 7D                   4D8A E8 F0 7D                   eorb    125,sp
4D8D E8 E0 7D                   4D8D E8 E0 7D                   eorb    125,x
4D90 E8 E8 7D                   4D90 E8 E8 7D                   eorb    125,y
4D93 E8 8F                      4D93 E8 8F                      eorb    15,sp
4D95 E8 0F                      4D95 E8 0F                      eorb    15,x
4D97 E8 4F                      4D97 E8 4F                      eorb    15,y
4D99 E8 F0 10                   4D99 E8 F0 10                   eorb    16,sp
4D9C E8 E0 10                   4D9C E8 E0 10                   eorb    16,x
4D9F E8 E8 10                   4D9F E8 E8 10                   eorb    16,y
4DA2 E8 B7                      4DA2 E8 B7                      eorb    8,sp+
4DA4 E8 37                      4DA4 E8 37                      eorb    8,x+
4DA6 E8 77                      4DA6 E8 77                      eorb    8,y+
4DA8 E8 B8                      4DA8 E8 B8                      eorb    8,sp-
4DAA E8 38                      4DAA E8 38                      eorb    8,x-
4DAC E8 78                      4DAC E8 78                      eorb    8,y-
4DAE E8 F4                      4DAE E8 F4                      eorb    a,sp
4DB0 E8 E4                      4DB0 E8 E4                      eorb    a,x
4DB2 E8 EC                      4DB2 E8 EC                      eorb    a,y
4DB4 E8 F5                      4DB4 E8 F5                      eorb    b,sp
4DB6 E8 E5                      4DB6 E8 E5                      eorb    b,x
4DB8 E8 ED                      4DB8 E8 ED                      eorb    b,y
4DBA E8 F6                      4DBA E8 F6                      eorb    d,sp
4DBC E8 E6                      4DBC E8 E6                      eorb    d,x
4DBE E8 EE                      4DBE E8 EE                      eorb    d,y
4DC0 D8 55                      4DC0 D8 55                      eorb    dir
4DC2 D8 55                      4DC2 D8 55                      eorb    dir
4DC4 F8 12 34                   4DC4 F8 12 34                   eorb    ext
4DC7 F8 12 34                   4DC7 F8 12 34                   eorb    ext
4DCA E8 F2 12 34                4DCA E8 F2 12 34                eorb    ext,sp
4DCE E8 E2 12 34                4DCE E8 E2 12 34                eorb    ext,x
4DD2 E8 EA 12 34                4DD2 E8 EA 12 34                eorb    ext,y
4DD6 E8 F8 37                   4DD6 E8 F8 37                   eorb    ind,pc
4DD9 E8 F0 37                   4DD9 E8 F0 37                   eorb    ind,sp
4DDC E8 E0 37                   4DDC E8 E0 37                   eorb    ind,x
4DDF E8 E8 37                   4DDF E8 E8 37                   eorb    ind,y
4DE2 E8 CE                      4DE2 E8 CE                      eorb    small,pc
4DE4 E8 8E                      4DE4 E8 8E                      eorb    small,sp
4DE6 E8 0E                      4DE6 E8 0E                      eorb    small,x
4DE8 E8 4E                      4DE8 E8 4E                      eorb    small,y
4DEA 18 3F 05                   4DEA 18 3F 05                   etbl    5,x
4DED B7 80                      4DED B7 80                      exg     a, a
4DEF B7 81                      4DEF B7 81                      exg     a, b
4DF1 B7 81                      4DF1 B7 81                      exg     a, b
4DF3 B7 82                      4DF3 B7 82                      exg     a, ccr
4DF5 B7 84                      4DF5 B7 84                      exg     a, d
4DF7 B7 87                      4DF7 B7 87                      exg     a, sp
4DF9 B7 85                      4DF9 B7 85                      exg     a, x
4DFB B7 85                      4DFB B7 85                      exg     a, x
4DFD B7 86                      4DFD B7 86                      exg     a, y
4DFF B7 85                      4DFF B7 85                      exg     a, x
4E01 B7 90                      4E01 B7 90                      exg     b, a
4E03 B7 91                      4E03 B7 91                      exg     b, b
4E05 B7 92                      4E05 B7 92                      exg     b, ccr
4E07 B7 94                      4E07 B7 94                      exg     b, d
4E09 B7 97                      4E09 B7 97                      exg     b, sp
4E0B B7 95                      4E0B B7 95                      exg     b, x
4E0D B7 96                      4E0D B7 96                      exg     b, y
4E0F B7 A0                      4E0F B7 A0                      exg     ccr, a
4E11 B7 A1                      4E11 B7 A1                      exg     ccr, b
4E13 B7 A2                      4E13 B7 A2                      exg     ccr, ccr
4E15 B7 A4                      4E15 B7 A4                      exg     ccr, d
4E17 B7 A7                      4E17 B7 A7                      exg     ccr, sp
4E19 B7 A5                      4E19 B7 A5                      exg     ccr, x
4E1B B7 A6                      4E1B B7 A6                      exg     ccr, y
4E1D B7 C0                      4E1D B7 C0                      exg     d, a
4E1F B7 C1                      4E1F B7 C1                      exg     d, b
4E21 B7 C2                      4E21 B7 C2                      exg     d, ccr
4E23 B7 C4                      4E23 B7 C4                      exg     d, d
4E25 B7 C7                      4E25 B7 C7                      exg     d, sp
4E27 B7 C5                      4E27 B7 C5                      exg     d, x
4E29 B7 C6                      4E29 B7 C6                      exg     d, y
4E2B B7 F0                      4E2B B7 F0                      exg     sp, a
4E2D B7 F1                      4E2D B7 F1                      exg     sp, b
4E2F B7 F2                      4E2F B7 F2                      exg     sp, ccr
4E31 B7 F4                      4E31 B7 F4                      exg     sp, d
4E33 B7 F7                      4E33 B7 F7                      exg     sp, sp
4E35 B7 F5                      4E35 B7 F5                      exg     sp, x
4E37 B7 F6                      4E37 B7 F6                      exg     sp, y
4E39 B7 D0                      4E39 B7 D0                      exg     x, a
4E3B B7 D1                      4E3B B7 D1                      exg     x, b
4E3D B7 D2                      4E3D B7 D2                      exg     x, ccr
4E3F B7 D4                      4E3F B7 D4                      exg     x, d
4E41 B7 D7                      4E41 B7 D7                      exg     x, sp
4E43 B7 D5                      4E43 B7 D5                      exg     x, x
4E45 B7 D6                      4E45 B7 D6                      exg     x, y
4E47 B7 D6                      4E47 B7 D6                      exg     x,y
4E49 B7 E0                      4E49 B7 E0                      exg     y, a
4E4B B7 E1                      4E4B B7 E1                      exg     y, b
4E4D B7 E2                      4E4D B7 E2                      exg     y, ccr
4E4F B7 E4                      4E4F B7 E4                      exg     y, d
4E51 B7 E7                      4E51 B7 E7                      exg     y, sp
4E53 B7 E5                      4E53 B7 E5                      exg     y, x
4E55 B7 E6                      4E55 B7 E6                      exg     y, y
4E57 18 11                      4E57 18 11                      fdiv
4E59 18 10                      4E59 18 10                      idiv
4E5B 62 A0                      4E5B 62 A0                      inc     1,+sp
4E5D 62 20                      4E5D 62 20                      inc     1,+x
4E5F 62 60                      4E5F 62 60                      inc     1,+y
4E61 62 A7                      4E61 62 A7                      inc     8,+sp
4E63 62 27                      4E63 62 27                      inc     8,+x
4E65 62 67                      4E65 62 67                      inc     8,+y
4E67 62 C0                      4E67 62 C0                      inc     ,pc
4E69 62 80                      4E69 62 80                      inc     ,sp
4E6B 62 00                      4E6B 62 00                      inc     ,x
4E6D 62 40                      4E6D 62 40                      inc     ,y
4E6F 62 AF                      4E6F 62 AF                      inc     1,-sp
4E71 62 2F                      4E71 62 2F                      inc     1,-x
4E73 62 6F                      4E73 62 6F                      inc     1,-y
4E75 62 A8                      4E75 62 A8                      inc     8,-sp
4E77 62 28                      4E77 62 28                      inc     8,-x
4E79 62 68                      4E79 62 68                      inc     8,-y
4E7B 62 9F                      4E7B 62 9F                      inc     -1,sp
4E7D 62 1F                      4E7D 62 1F                      inc     -1,x
4E7F 62 5F                      4E7F 62 5F                      inc     -1,y
4E81 62 90                      4E81 62 90                      inc     -16,sp
4E83 62 10                      4E83 62 10                      inc     -16,x
4E85 62 50                      4E85 62 50                      inc     -16,y
4E87 62 F1 EF                   4E87 62 F1 EF                   inc     -17,sp
4E8A 62 E1 EF                   4E8A 62 E1 EF                   inc     -17,x
4E8D 62 E9 EF                   4E8D 62 E9 EF                   inc     -17,y
4E90 62 D2                      4E90 62 D2                      inc     -small,pc
4E92 62 92                      4E92 62 92                      inc     -small,sp
4E94 62 12                      4E94 62 12                      inc     -small,x
4E96 62 52                      4E96 62 52                      inc     -small,y
4E98 62 C0                      4E98 62 C0                      inc     0,pc
4E9A 62 80                      4E9A 62 80                      inc     0,sp
4E9C 62 00                      4E9C 62 00                      inc     0,x
4E9E 62 40                      4E9E 62 40                      inc     0,y
4EA0 62 B0                      4EA0 62 B0                      inc     1,sp+
4EA2 62 30                      4EA2 62 30                      inc     1,x+
4EA4 62 70                      4EA4 62 70                      inc     1,y+
4EA6 62 81                      4EA6 62 81                      inc     1,sp
4EA8 62 01                      4EA8 62 01                      inc     1,x
4EAA 62 41                      4EAA 62 41                      inc     1,y
4EAC 62 BF                      4EAC 62 BF                      inc     1,sp-
4EAE 62 3F                      4EAE 62 3F                      inc     1,x-
4EB0 62 7F                      4EB0 62 7F                      inc     1,y-
4EB2 62 F8 7D                   4EB2 62 F8 7D                   inc     125,pc
4EB5 62 F0 7D                   4EB5 62 F0 7D                   inc     125,sp
4EB8 62 E0 7D                   4EB8 62 E0 7D                   inc     125,x
4EBB 62 E8 7D                   4EBB 62 E8 7D                   inc     125,y
4EBE 62 8F                      4EBE 62 8F                      inc     15,sp
4EC0 62 0F                      4EC0 62 0F                      inc     15,x
4EC2 62 4F                      4EC2 62 4F                      inc     15,y
4EC4 62 F0 10                   4EC4 62 F0 10                   inc     16,sp
4EC7 62 E0 10                   4EC7 62 E0 10                   inc     16,x
4ECA 62 E8 10                   4ECA 62 E8 10                   inc     16,y
4ECD 62 B7                      4ECD 62 B7                      inc     8,sp+
4ECF 62 37                      4ECF 62 37                      inc     8,x+
4ED1 62 77                      4ED1 62 77                      inc     8,y+
4ED3 62 B8                      4ED3 62 B8                      inc     8,sp-
4ED5 62 38                      4ED5 62 38                      inc     8,x-
4ED7 62 78                      4ED7 62 78                      inc     8,y-
4ED9 62 F4                      4ED9 62 F4                      inc     a,sp
4EDB 62 E4                      4EDB 62 E4                      inc     a,x
4EDD 62 EC                      4EDD 62 EC                      inc     a,y
4EDF 62 F5                      4EDF 62 F5                      inc     b,sp
4EE1 62 E5                      4EE1 62 E5                      inc     b,x
4EE3 62 ED                      4EE3 62 ED                      inc     b,y
4EE5 62 F6                      4EE5 62 F6                      inc     d,sp
4EE7 62 E6                      4EE7 62 E6                      inc     d,x
4EE9 62 EE                      4EE9 62 EE                      inc     d,y
4EEB 72 00 55                   4EEB 72 00 55                   inc     dir
4EEE 72 12 34                   4EEE 72 12 34                   inc     ext
4EF1 72 12 34                   4EF1 72 12 34                   inc     ext
4EF4 62 F2 12 34                4EF4 62 F2 12 34                inc     ext,sp
4EF8 62 E2 12 34                4EF8 62 E2 12 34                inc     ext,x
4EFC 62 EA 12 34                4EFC 62 EA 12 34                inc     ext,y
4F00 62 F8 37                   4F00 62 F8 37                   inc     ind,pc
4F03 62 F0 37                   4F03 62 F0 37                   inc     ind,sp
4F06 62 E0 37                   4F06 62 E0 37                   inc     ind,x
4F09 62 E8 37                   4F09 62 E8 37                   inc     ind,y
4F0C 62 CE                      4F0C 62 CE                      inc     small,pc
4F0E 62 8E                      4F0E 62 8E                      inc     small,sp
4F10 62 0E                      4F10 62 0E                      inc     small,x
4F12 62 4E                      4F12 62 4E                      inc     small,y
4F14 42                         4F14 42                         inca
4F15 52                         4F15 52                         incb
4F16 1B 81                      4F16 1B 81                      ins
4F18 08                         4F18 08                         inx
4F19 02                         4F19 02                         iny
4F1A 05 A0                      4F1A 05 A0                      jmp     1,+sp
4F1C 05 20                      4F1C 05 20                      jmp     1,+x
4F1E 05 60                      4F1E 05 60                      jmp     1,+y
4F20 05 A7                      4F20 05 A7                      jmp     8,+sp
4F22 05 27                      4F22 05 27                      jmp     8,+x
4F24 05 67                      4F24 05 67                      jmp     8,+y
4F26 05 C0                      4F26 05 C0                      jmp     ,pc
4F28 05 80                      4F28 05 80                      jmp     ,sp
4F2A 05 00                      4F2A 05 00                      jmp     ,x
4F2C 05 40                      4F2C 05 40                      jmp     ,y
4F2E 05 AF                      4F2E 05 AF                      jmp     1,-sp
4F30 05 2F                      4F30 05 2F                      jmp     1,-x
4F32 05 6F                      4F32 05 6F                      jmp     1,-y
4F34 05 A8                      4F34 05 A8                      jmp     8,-sp
4F36 05 28                      4F36 05 28                      jmp     8,-x
4F38 05 68                      4F38 05 68                      jmp     8,-y
4F3A 05 9F                      4F3A 05 9F                      jmp     -1,sp
4F3C 05 1F                      4F3C 05 1F                      jmp     -1,x
4F3E 05 5F                      4F3E 05 5F                      jmp     -1,y
4F40 05 90                      4F40 05 90                      jmp     -16,sp
4F42 05 10                      4F42 05 10                      jmp     -16,x
4F44 05 50                      4F44 05 50                      jmp     -16,y
4F46 05 F1 EF                   4F46 05 F1 EF                   jmp     -17,sp
4F49 05 E1 EF                   4F49 05 E1 EF                   jmp     -17,x
4F4C 05 E9 EF                   4F4C 05 E9 EF                   jmp     -17,y
4F4F 05 D2                      4F4F 05 D2                      jmp     -small,pc
4F51 05 92                      4F51 05 92                      jmp     -small,sp
4F53 05 12                      4F53 05 12                      jmp     -small,x
4F55 05 52                      4F55 05 52                      jmp     -small,y
4F57 05 C0                      4F57 05 C0                      jmp     0,pc
4F59 05 80                      4F59 05 80                      jmp     0,sp
4F5B 05 00                      4F5B 05 00                      jmp     0,x
4F5D 05 40                      4F5D 05 40                      jmp     0,y
4F5F 05 B0                      4F5F 05 B0                      jmp     1,sp+
4F61 05 30                      4F61 05 30                      jmp     1,x+
4F63 05 70                      4F63 05 70                      jmp     1,y+
4F65 05 81                      4F65 05 81                      jmp     1,sp
4F67 05 01                      4F67 05 01                      jmp     1,x
4F69 05 41                      4F69 05 41                      jmp     1,y
4F6B 05 BF                      4F6B 05 BF                      jmp     1,sp-
4F6D 05 3F                      4F6D 05 3F                      jmp     1,x-
4F6F 05 7F                      4F6F 05 7F                      jmp     1,y-
4F71 05 F8 7D                   4F71 05 F8 7D                   jmp     125,pc
4F74 05 F0 7D                   4F74 05 F0 7D                   jmp     125,sp
4F77 05 E0 7D                   4F77 05 E0 7D                   jmp     125,x
4F7A 05 E8 7D                   4F7A 05 E8 7D                   jmp     125,y
4F7D 05 8F                      4F7D 05 8F                      jmp     15,sp
4F7F 05 0F                      4F7F 05 0F                      jmp     15,x
4F81 05 4F                      4F81 05 4F                      jmp     15,y
4F83 05 F0 10                   4F83 05 F0 10                   jmp     16,sp
4F86 05 E0 10                   4F86 05 E0 10                   jmp     16,x
4F89 05 E8 10                   4F89 05 E8 10                   jmp     16,y
4F8C 05 B7                      4F8C 05 B7                      jmp     8,sp+
4F8E 05 37                      4F8E 05 37                      jmp     8,x+
4F90 05 77                      4F90 05 77                      jmp     8,y+
4F92 05 B8                      4F92 05 B8                      jmp     8,sp-
4F94 05 38                      4F94 05 38                      jmp     8,x-
4F96 05 78                      4F96 05 78                      jmp     8,y-
4F98 05 F4                      4F98 05 F4                      jmp     a,sp
4F9A 05 E4                      4F9A 05 E4                      jmp     a,x
4F9C 05 EC                      4F9C 05 EC                      jmp     a,y
4F9E 05 F5                      4F9E 05 F5                      jmp     b,sp
4FA0 05 E5                      4FA0 05 E5                      jmp     b,x
4FA2 05 ED                      4FA2 05 ED                      jmp     b,y
4FA4 05 F6                      4FA4 05 F6                      jmp     d,sp
4FA6 05 E6                      4FA6 05 E6                      jmp     d,x
4FA8 05 EE                      4FA8 05 EE                      jmp     d,y
4FAA 06 00 55                   4FAA 06 00 55                   jmp     dir
4FAD 06 12 34                   4FAD 06 12 34                   jmp     ext
4FB0 06 12 34                   4FB0 06 12 34                   jmp     ext
4FB3 05 F2 12 34                4FB3 05 F2 12 34                jmp     ext,sp
4FB7 05 E2 12 34                4FB7 05 E2 12 34                jmp     ext,x
4FBB 05 EA 12 34                4FBB 05 EA 12 34                jmp     ext,y
4FBF 05 F8 37                   4FBF 05 F8 37                   jmp     ind,pc
4FC2 05 F0 37                   4FC2 05 F0 37                   jmp     ind,sp
4FC5 05 E0 37                   4FC5 05 E0 37                   jmp     ind,x
4FC8 05 E8 37                   4FC8 05 E8 37                   jmp     ind,y
4FCB 05 CE                      4FCB 05 CE                      jmp     small,pc
4FCD 05 8E                      4FCD 05 8E                      jmp     small,sp
4FCF 05 0E                      4FCF 05 0E                      jmp     small,x
4FD1 05 4E                      4FD1 05 4E                      jmp     small,y
4FD3 15 A0                      4FD3 15 A0                      jsr     1,+sp
4FD5 15 20                      4FD5 15 20                      jsr     1,+x
4FD7 15 60                      4FD7 15 60                      jsr     1,+y
4FD9 15 A7                      4FD9 15 A7                      jsr     8,+sp
4FDB 15 27                      4FDB 15 27                      jsr     8,+x
4FDD 15 67                      4FDD 15 67                      jsr     8,+y
4FDF 15 C0                      4FDF 15 C0                      jsr     ,pc
4FE1 15 80                      4FE1 15 80                      jsr     ,sp
4FE3 15 00                      4FE3 15 00                      jsr     ,x
4FE5 15 40                      4FE5 15 40                      jsr     ,y
4FE7 15 AF                      4FE7 15 AF                      jsr     1,-sp
4FE9 15 2F                      4FE9 15 2F                      jsr     1,-x
4FEB 15 6F                      4FEB 15 6F                      jsr     1,-y
4FED 15 A8                      4FED 15 A8                      jsr     8,-sp
4FEF 15 28                      4FEF 15 28                      jsr     8,-x
4FF1 15 68                      4FF1 15 68                      jsr     8,-y
4FF3 15 9F                      4FF3 15 9F                      jsr     -1,sp
4FF5 15 1F                      4FF5 15 1F                      jsr     -1,x
4FF7 15 5F                      4FF7 15 5F                      jsr     -1,y
4FF9 15 90                      4FF9 15 90                      jsr     -16,sp
4FFB 15 10                      4FFB 15 10                      jsr     -16,x
4FFD 15 50                      4FFD 15 50                      jsr     -16,y
4FFF 15 F1 EF                   4FFF 15 F1 EF                   jsr     -17,sp
5002 15 E1 EF                   5002 15 E1 EF                   jsr     -17,x
5005 15 E9 EF                   5005 15 E9 EF                   jsr     -17,y
5008 15 D2                      5008 15 D2                      jsr     -small,pc
500A 15 92                      500A 15 92                      jsr     -small,sp
500C 15 12                      500C 15 12                      jsr     -small,x
500E 15 52                      500E 15 52                      jsr     -small,y
5010 15 C0                      5010 15 C0                      jsr     0,pc
5012 15 80                      5012 15 80                      jsr     0,sp
5014 15 00                      5014 15 00                      jsr     0,x
5016 15 40                      5016 15 40                      jsr     0,y
5018 15 B0                      5018 15 B0                      jsr     1,sp+
501A 15 30                      501A 15 30                      jsr     1,x+
501C 15 70                      501C 15 70                      jsr     1,y+
501E 15 81                      501E 15 81                      jsr     1,sp
5020 15 01                      5020 15 01                      jsr     1,x
5022 15 41                      5022 15 41                      jsr     1,y
5024 15 BF                      5024 15 BF                      jsr     1,sp-
5026 15 3F                      5026 15 3F                      jsr     1,x-
5028 15 7F                      5028 15 7F                      jsr     1,y-
502A 15 F8 7D                   502A 15 F8 7D                   jsr     125,pc
502D 15 F0 7D                   502D 15 F0 7D                   jsr     125,sp
5030 15 E0 7D                   5030 15 E0 7D                   jsr     125,x
5033 15 E8 7D                   5033 15 E8 7D                   jsr     125,y
5036 15 8F                      5036 15 8F                      jsr     15,sp
5038 15 0F                      5038 15 0F                      jsr     15,x
503A 15 4F                      503A 15 4F                      jsr     15,y
503C 15 F0 10                   503C 15 F0 10                   jsr     16,sp
503F 15 E0 10                   503F 15 E0 10                   jsr     16,x
5042 15 E8 10                   5042 15 E8 10                   jsr     16,y
5045 15 B7                      5045 15 B7                      jsr     8,sp+
5047 15 37                      5047 15 37                      jsr     8,x+
5049 15 77                      5049 15 77                      jsr     8,y+
504B 15 B8                      504B 15 B8                      jsr     8,sp-
504D 15 38                      504D 15 38                      jsr     8,x-
504F 15 78                      504F 15 78                      jsr     8,y-
5051 15 F4                      5051 15 F4                      jsr     a,sp
5053 15 E4                      5053 15 E4                      jsr     a,x
5055 15 EC                      5055 15 EC                      jsr     a,y
5057 15 F5                      5057 15 F5                      jsr     b,sp
5059 15 E5                      5059 15 E5                      jsr     b,x
505B 15 ED                      505B 15 ED                      jsr     b,y
505D 15 F6                      505D 15 F6                      jsr     d,sp
505F 15 E6                      505F 15 E6                      jsr     d,x
5061 15 EE                      5061 15 EE                      jsr     d,y
5063 17 55                      5063 17 55                      jsr     dir
5065 17 55                      5065 17 55                      jsr     dir
5067 16 12 34                   5067 16 12 34                   jsr     ext
506A 16 12 34                   506A 16 12 34                   jsr     ext
506D 16 12 34                   506D 16 12 34                   jsr     ext
5070 15 F2 12 34                5070 15 F2 12 34                jsr     ext,sp
5074 15 E2 12 34                5074 15 E2 12 34                jsr     ext,x
5078 15 EA 12 34                5078 15 EA 12 34                jsr     ext,y
507C 15 F8 37                   507C 15 F8 37                   jsr     ind,pc
507F 15 F0 37                   507F 15 F0 37                   jsr     ind,sp
5082 15 E0 37                   5082 15 E0 37                   jsr     ind,x
5085 15 E8 37                   5085 15 E8 37                   jsr     ind,y
5088 15 CE                      5088 15 CE                      jsr     small,pc
508A 15 8E                      508A 15 8E                      jsr     small,sp
508C 15 0E                      508C 15 0E                      jsr     small,x
508E 15 4E                      508E 15 4E                      jsr     small,y
5090 18 24 FF FC                5090 18 24 FF FC                lbcc    *
5094 18 24 FF FC                5094 18 24 FF FC                lbcc    *
5098 18 25 FF FC                5098 18 25 FF FC                lbcs    *
509C 18 27 FF FC                509C 18 27 FF FC                lbeq    *
50A0 18 2C FF FC                50A0 18 2C FF FC                lbge    *
50A4 18 2E FF FC                50A4 18 2E FF FC                lbgt    *
50A8 18 22 FF FC                50A8 18 22 FF FC                lbhi    *
50AC 18 2F FF FC                50AC 18 2F FF FC                lble    *
50B0 18 23 FF FC                50B0 18 23 FF FC                lbls    *
50B4 18 2D FF FC                50B4 18 2D FF FC                lblt    *
50B8 18 2B FF FC                50B8 18 2B FF FC                lbmi    *
50BC 18 26 FF FC                50BC 18 26 FF FC                lbne    *
50C0 18 2A FF FC                50C0 18 2A FF FC                lbpl    *
50C4 18 20 FF FC                50C4 18 20 FF FC                lbra    *
50C8 18 21 FF FC                50C8 18 21 FF FC                lbrn    *
50CC 18 23 FF FC                50CC 18 23 FF FC                lbls    *
50D0 18 28 FF FC                50D0 18 28 FF FC                lbvc    *
50D4 18 29 FF FC                50D4 18 29 FF FC                lbvs    *
50D8 86 72                      50D8 86 72                      ldaa    #immed
50DA 86 72                      50DA 86 72                      ldaa    #immed
50DC A6 A0                      50DC A6 A0                      ldaa    1,+sp
50DE A6 20                      50DE A6 20                      ldaa    1,+x
50E0 A6 60                      50E0 A6 60                      ldaa    1,+y
50E2 A6 A7                      50E2 A6 A7                      ldaa    8,+sp
50E4 A6 27                      50E4 A6 27                      ldaa    8,+x
50E6 A6 67                      50E6 A6 67                      ldaa    8,+y
50E8 A6 C0                      50E8 A6 C0                      ldaa    ,pc
50EA A6 80                      50EA A6 80                      ldaa    ,sp
50EC A6 00                      50EC A6 00                      ldaa    ,x
50EE A6 40                      50EE A6 40                      ldaa    ,y
50F0 A6 AF                      50F0 A6 AF                      ldaa    1,-sp
50F2 A6 2F                      50F2 A6 2F                      ldaa    1,-x
50F4 A6 6F                      50F4 A6 6F                      ldaa    1,-y
50F6 A6 A8                      50F6 A6 A8                      ldaa    8,-sp
50F8 A6 28                      50F8 A6 28                      ldaa    8,-x
50FA A6 68                      50FA A6 68                      ldaa    8,-y
50FC A6 9F                      50FC A6 9F                      ldaa    -1,sp
50FE A6 1F                      50FE A6 1F                      ldaa    -1,x
5100 A6 5F                      5100 A6 5F                      ldaa    -1,y
5102 A6 90                      5102 A6 90                      ldaa    -16,sp
5104 A6 10                      5104 A6 10                      ldaa    -16,x
5106 A6 50                      5106 A6 50                      ldaa    -16,y
5108 A6 F1 EF                   5108 A6 F1 EF                   ldaa    -17,sp
510B A6 E1 EF                   510B A6 E1 EF                   ldaa    -17,x
510E A6 E9 EF                   510E A6 E9 EF                   ldaa    -17,y
5111 A6 D2                      5111 A6 D2                      ldaa    -small,pc
5113 A6 92                      5113 A6 92                      ldaa    -small,sp
5115 A6 12                      5115 A6 12                      ldaa    -small,x
5117 A6 52                      5117 A6 52                      ldaa    -small,y
5119 A6 C0                      5119 A6 C0                      ldaa    0,pc
511B A6 80                      511B A6 80                      ldaa    0,sp
511D A6 00                      511D A6 00                      ldaa    0,x
511F A6 40                      511F A6 40                      ldaa    0,y
5121 A6 B0                      5121 A6 B0                      ldaa    1,sp+
5123 A6 30                      5123 A6 30                      ldaa    1,x+
5125 A6 70                      5125 A6 70                      ldaa    1,y+
5127 A6 81                      5127 A6 81                      ldaa    1,sp
5129 A6 01                      5129 A6 01                      ldaa    1,x
512B A6 41                      512B A6 41                      ldaa    1,y
512D A6 BF                      512D A6 BF                      ldaa    1,sp-
512F A6 3F                      512F A6 3F                      ldaa    1,x-
5131 A6 7F                      5131 A6 7F                      ldaa    1,y-
5133 A6 F8 7D                   5133 A6 F8 7D                   ldaa    125,pc
5136 A6 F0 7D                   5136 A6 F0 7D                   ldaa    125,sp
5139 A6 E0 7D                   5139 A6 E0 7D                   ldaa    125,x
513C A6 E8 7D                   513C A6 E8 7D                   ldaa    125,y
513F A6 8F                      513F A6 8F                      ldaa    15,sp
5141 A6 0F                      5141 A6 0F                      ldaa    15,x
5143 A6 4F                      5143 A6 4F                      ldaa    15,y
5145 A6 F0 10                   5145 A6 F0 10                   ldaa    16,sp
5148 A6 E0 10                   5148 A6 E0 10                   ldaa    16,x
514B A6 E8 10                   514B A6 E8 10                   ldaa    16,y
514E A6 B7                      514E A6 B7                      ldaa    8,sp+
5150 A6 37                      5150 A6 37                      ldaa    8,x+
5152 A6 77                      5152 A6 77                      ldaa    8,y+
5154 A6 B8                      5154 A6 B8                      ldaa    8,sp-
5156 A6 38                      5156 A6 38                      ldaa    8,x-
5158 A6 78                      5158 A6 78                      ldaa    8,y-
515A A6 F4                      515A A6 F4                      ldaa    a,sp
515C A6 E4                      515C A6 E4                      ldaa    a,x
515E A6 EC                      515E A6 EC                      ldaa    a,y
5160 A6 F5                      5160 A6 F5                      ldaa    b,sp
5162 A6 E5                      5162 A6 E5                      ldaa    b,x
5164 A6 ED                      5164 A6 ED                      ldaa    b,y
5166 A6 F6                      5166 A6 F6                      ldaa    d,sp
5168 A6 E6                      5168 A6 E6                      ldaa    d,x
516A A6 EE                      516A A6 EE                      ldaa    d,y
516C 96 55                      516C 96 55                      ldaa    dir
516E 96 55                      516E 96 55                      ldaa    dir
5170 B6 12 34                   5170 B6 12 34                   ldaa    ext
5173 B6 12 34                   5173 B6 12 34                   ldaa    ext
5176 A6 F2 12 34                5176 A6 F2 12 34                ldaa    ext,sp
517A A6 E2 12 34                517A A6 E2 12 34                ldaa    ext,x
517E A6 EA 12 34                517E A6 EA 12 34                ldaa    ext,y
5182 A6 F8 37                   5182 A6 F8 37                   ldaa    ind,pc
5185 A6 F0 37                   5185 A6 F0 37                   ldaa    ind,sp
5188 A6 E0 37                   5188 A6 E0 37                   ldaa    ind,x
518B A6 E8 37                   518B A6 E8 37                   ldaa    ind,y
518E A6 CE                      518E A6 CE                      ldaa    small,pc
5190 A6 8E                      5190 A6 8E                      ldaa    small,sp
5192 A6 0E                      5192 A6 0E                      ldaa    small,x
5194 A6 4E                      5194 A6 4E                      ldaa    small,y
5196 C6 72                      5196 C6 72                      ldab    #immed
5198 C6 72                      5198 C6 72                      ldab    #immed
519A E6 A0                      519A E6 A0                      ldab    1,+sp
519C E6 20                      519C E6 20                      ldab    1,+x
519E E6 60                      519E E6 60                      ldab    1,+y
51A0 E6 A7                      51A0 E6 A7                      ldab    8,+sp
51A2 E6 27                      51A2 E6 27                      ldab    8,+x
51A4 E6 67                      51A4 E6 67                      ldab    8,+y
51A6 E6 C0                      51A6 E6 C0                      ldab    ,pc
51A8 E6 80                      51A8 E6 80                      ldab    ,sp
51AA E6 00                      51AA E6 00                      ldab    ,x
51AC E6 40                      51AC E6 40                      ldab    ,y
51AE E6 AF                      51AE E6 AF                      ldab    1,-sp
51B0 E6 2F                      51B0 E6 2F                      ldab    1,-x
51B2 E6 6F                      51B2 E6 6F                      ldab    1,-y
51B4 E6 A8                      51B4 E6 A8                      ldab    8,-sp
51B6 E6 28                      51B6 E6 28                      ldab    8,-x
51B8 E6 68                      51B8 E6 68                      ldab    8,-y
51BA E6 9F                      51BA E6 9F                      ldab    -1,sp
51BC E6 1F                      51BC E6 1F                      ldab    -1,x
51BE E6 5F                      51BE E6 5F                      ldab    -1,y
51C0 E6 90                      51C0 E6 90                      ldab    -16,sp
51C2 E6 10                      51C2 E6 10                      ldab    -16,x
51C4 E6 50                      51C4 E6 50                      ldab    -16,y
51C6 E6 F1 EF                   51C6 E6 F1 EF                   ldab    -17,sp
51C9 E6 E1 EF                   51C9 E6 E1 EF                   ldab    -17,x
51CC E6 E9 EF                   51CC E6 E9 EF                   ldab    -17,y
51CF E6 D2                      51CF E6 D2                      ldab    -small,pc
51D1 E6 92                      51D1 E6 92                      ldab    -small,sp
51D3 E6 12                      51D3 E6 12                      ldab    -small,x
51D5 E6 52                      51D5 E6 52                      ldab    -small,y
51D7 E6 C0                      51D7 E6 C0                      ldab    0,pc
51D9 E6 80                      51D9 E6 80                      ldab    0,sp
51DB E6 00                      51DB E6 00                      ldab    0,x
51DD E6 40                      51DD E6 40                      ldab    0,y
51DF E6 B0                      51DF E6 B0                      ldab    1,sp+
51E1 E6 30                      51E1 E6 30                      ldab    1,x+
51E3 E6 70                      51E3 E6 70                      ldab    1,y+
51E5 E6 81                      51E5 E6 81                      ldab    1,sp
51E7 E6 01                      51E7 E6 01                      ldab    1,x
51E9 E6 41                      51E9 E6 41                      ldab    1,y
51EB E6 BF                      51EB E6 BF                      ldab    1,sp-
51ED E6 3F                      51ED E6 3F                      ldab    1,x-
51EF E6 7F                      51EF E6 7F                      ldab    1,y-
51F1 E6 F8 7D                   51F1 E6 F8 7D                   ldab    125,pc
51F4 E6 F0 7D                   51F4 E6 F0 7D                   ldab    125,sp
51F7 E6 E0 7D                   51F7 E6 E0 7D                   ldab    125,x
51FA E6 E8 7D                   51FA E6 E8 7D                   ldab    125,y
51FD E6 8F                      51FD E6 8F                      ldab    15,sp
51FF E6 0F                      51FF E6 0F                      ldab    15,x
5201 E6 4F                      5201 E6 4F                      ldab    15,y
5203 E6 F0 10                   5203 E6 F0 10                   ldab    16,sp
5206 E6 E0 10                   5206 E6 E0 10                   ldab    16,x
5209 E6 E8 10                   5209 E6 E8 10                   ldab    16,y
520C E6 B7                      520C E6 B7                      ldab    8,sp+
520E E6 37                      520E E6 37                      ldab    8,x+
5210 E6 77                      5210 E6 77                      ldab    8,y+
5212 E6 B8                      5212 E6 B8                      ldab    8,sp-
5214 E6 38                      5214 E6 38                      ldab    8,x-
5216 E6 78                      5216 E6 78                      ldab    8,y-
5218 E6 F4                      5218 E6 F4                      ldab    a,sp
521A E6 E4                      521A E6 E4                      ldab    a,x
521C E6 EC                      521C E6 EC                      ldab    a,y
521E E6 F5                      521E E6 F5                      ldab    b,sp
5220 E6 E5                      5220 E6 E5                      ldab    b,x
5222 E6 ED                      5222 E6 ED                      ldab    b,y
5224 E6 F6                      5224 E6 F6                      ldab    d,sp
5226 E6 E6                      5226 E6 E6                      ldab    d,x
5228 E6 EE                      5228 E6 EE                      ldab    d,y
522A D6 55                      522A D6 55                      ldab    dir
522C D6 55                      522C D6 55                      ldab    dir
522E F6 12 34                   522E F6 12 34                   ldab    ext
5231 F6 12 34                   5231 F6 12 34                   ldab    ext
5234 E6 F2 12 34                5234 E6 F2 12 34                ldab    ext,sp
5238 E6 E2 12 34                5238 E6 E2 12 34                ldab    ext,x
523C E6 EA 12 34                523C E6 EA 12 34                ldab    ext,y
5240 E6 F8 37                   5240 E6 F8 37                   ldab    ind,pc
5243 E6 F0 37                   5243 E6 F0 37                   ldab    ind,sp
5246 E6 E0 37                   5246 E6 E0 37                   ldab    ind,x
5249 E6 E8 37                   5249 E6 E8 37                   ldab    ind,y
524C E6 CE                      524C E6 CE                      ldab    small,pc
524E E6 8E                      524E E6 8E                      ldab    small,sp
5250 E6 0E                      5250 E6 0E                      ldab    small,x
5252 E6 4E                      5252 E6 4E                      ldab    small,y
5254 CC 00 72                   5254 CC 00 72                   ldd     #immed
5257 CC 00 72                   5257 CC 00 72                   ldd     #immed
525A EC A0                      525A EC A0                      ldd     1,+sp
525C EC 20                      525C EC 20                      ldd     1,+x
525E EC 60                      525E EC 60                      ldd     1,+y
5260 EC A7                      5260 EC A7                      ldd     8,+sp
5262 EC 27                      5262 EC 27                      ldd     8,+x
5264 EC 67                      5264 EC 67                      ldd     8,+y
5266 EC C0                      5266 EC C0                      ldd     ,pc
5268 EC 80                      5268 EC 80                      ldd     ,sp
526A EC 00                      526A EC 00                      ldd     ,x
526C EC 40                      526C EC 40                      ldd     ,y
526E EC AF                      526E EC AF                      ldd     1,-sp
5270 EC 2F                      5270 EC 2F                      ldd     1,-x
5272 EC 6F                      5272 EC 6F                      ldd     1,-y
5274 EC A8                      5274 EC A8                      ldd     8,-sp
5276 EC 28                      5276 EC 28                      ldd     8,-x
5278 EC 68                      5278 EC 68                      ldd     8,-y
527A EC 9F                      527A EC 9F                      ldd     -1,sp
527C EC 1F                      527C EC 1F                      ldd     -1,x
527E EC 5F                      527E EC 5F                      ldd     -1,y
5280 EC 90                      5280 EC 90                      ldd     -16,sp
5282 EC 10                      5282 EC 10                      ldd     -16,x
5284 EC 50                      5284 EC 50                      ldd     -16,y
5286 EC F1 EF                   5286 EC F1 EF                   ldd     -17,sp
5289 EC E1 EF                   5289 EC E1 EF                   ldd     -17,x
528C EC E9 EF                   528C EC E9 EF                   ldd     -17,y
528F EC D2                      528F EC D2                      ldd     -small,pc
5291 EC 92                      5291 EC 92                      ldd     -small,sp
5293 EC 12                      5293 EC 12                      ldd     -small,x
5295 EC 52                      5295 EC 52                      ldd     -small,y
5297 EC C0                      5297 EC C0                      ldd     0,pc
5299 EC 80                      5299 EC 80                      ldd     0,sp
529B EC 00                      529B EC 00                      ldd     0,x
529D EC 40                      529D EC 40                      ldd     0,y
529F EC B0                      529F EC B0                      ldd     1,sp+
52A1 EC 30                      52A1 EC 30                      ldd     1,x+
52A3 EC 70                      52A3 EC 70                      ldd     1,y+
52A5 EC 81                      52A5 EC 81                      ldd     1,sp
52A7 EC 01                      52A7 EC 01                      ldd     1,x
52A9 EC 41                      52A9 EC 41                      ldd     1,y
52AB EC BF                      52AB EC BF                      ldd     1,sp-
52AD EC 3F                      52AD EC 3F                      ldd     1,x-
52AF EC 7F                      52AF EC 7F                      ldd     1,y-
52B1 EC F8 7D                   52B1 EC F8 7D                   ldd     125,pc
52B4 EC F0 7D                   52B4 EC F0 7D                   ldd     125,sp
52B7 EC E0 7D                   52B7 EC E0 7D                   ldd     125,x
52BA EC E8 7D                   52BA EC E8 7D                   ldd     125,y
52BD EC 8F                      52BD EC 8F                      ldd     15,sp
52BF EC 0F                      52BF EC 0F                      ldd     15,x
52C1 EC 4F                      52C1 EC 4F                      ldd     15,y
52C3 EC F0 10                   52C3 EC F0 10                   ldd     16,sp
52C6 EC E0 10                   52C6 EC E0 10                   ldd     16,x
52C9 EC E8 10                   52C9 EC E8 10                   ldd     16,y
52CC EC B7                      52CC EC B7                      ldd     8,sp+
52CE EC 37                      52CE EC 37                      ldd     8,x+
52D0 EC 77                      52D0 EC 77                      ldd     8,y+
52D2 EC B8                      52D2 EC B8                      ldd     8,sp-
52D4 EC 38                      52D4 EC 38                      ldd     8,x-
52D6 EC 78                      52D6 EC 78                      ldd     8,y-
52D8 EC F4                      52D8 EC F4                      ldd     a,sp
52DA EC E4                      52DA EC E4                      ldd     a,x
52DC EC EC                      52DC EC EC                      ldd     a,y
52DE EC F5                      52DE EC F5                      ldd     b,sp
52E0 EC E5                      52E0 EC E5                      ldd     b,x
52E2 EC ED                      52E2 EC ED                      ldd     b,y
52E4 EC F6                      52E4 EC F6                      ldd     d,sp
52E6 EC E6                      52E6 EC E6                      ldd     d,x
52E8 EC EE                      52E8 EC EE                      ldd     d,y
52EA DC 55                      52EA DC 55                      ldd     dir
52EC DC 55                      52EC DC 55                      ldd     dir
52EE FC 12 34                   52EE FC 12 34                   ldd     ext
52F1 FC 12 34                   52F1 FC 12 34                   ldd     ext
52F4 EC F2 12 34                52F4 EC F2 12 34                ldd     ext,sp
52F8 EC E2 12 34                52F8 EC E2 12 34                ldd     ext,x
52FC EC EA 12 34                52FC EC EA 12 34                ldd     ext,y
5300 EC F8 37                   5300 EC F8 37                   ldd     ind,pc
5303 EC F0 37                   5303 EC F0 37                   ldd     ind,sp
5306 EC E0 37                   5306 EC E0 37                   ldd     ind,x
5309 EC E8 37                   5309 EC E8 37                   ldd     ind,y
530C EC CE                      530C EC CE                      ldd     small,pc
530E EC 8E                      530E EC 8E                      ldd     small,sp
5310 EC 0E                      5310 EC 0E                      ldd     small,x
5312 EC 4E                      5312 EC 4E                      ldd     small,y
5314 CF 00 72                   5314 CF 00 72                   lds     #immed
5317 CF 00 72                   5317 CF 00 72                   lds     #immed
531A EF A0                      531A EF A0                      lds     1,+sp
531C EF 20                      531C EF 20                      lds     1,+x
531E EF 60                      531E EF 60                      lds     1,+y
5320 EF A7                      5320 EF A7                      lds     8,+sp
5322 EF 27                      5322 EF 27                      lds     8,+x
5324 EF 67                      5324 EF 67                      lds     8,+y
5326 EF C0                      5326 EF C0                      lds     ,pc
5328 EF 80                      5328 EF 80                      lds     ,sp
532A EF 00                      532A EF 00                      lds     ,x
532C EF 40                      532C EF 40                      lds     ,y
532E EF AF                      532E EF AF                      lds     1,-sp
5330 EF 2F                      5330 EF 2F                      lds     1,-x
5332 EF 6F                      5332 EF 6F                      lds     1,-y
5334 EF A8                      5334 EF A8                      lds     8,-sp
5336 EF 28                      5336 EF 28                      lds     8,-x
5338 EF 68                      5338 EF 68                      lds     8,-y
533A EF 9F                      533A EF 9F                      lds     -1,sp
533C EF 1F                      533C EF 1F                      lds     -1,x
533E EF 5F                      533E EF 5F                      lds     -1,y
5340 EF 90                      5340 EF 90                      lds     -16,sp
5342 EF 10                      5342 EF 10                      lds     -16,x
5344 EF 50                      5344 EF 50                      lds     -16,y
5346 EF F1 EF                   5346 EF F1 EF                   lds     -17,sp
5349 EF E1 EF                   5349 EF E1 EF                   lds     -17,x
534C EF E9 EF                   534C EF E9 EF                   lds     -17,y
534F EF D2                      534F EF D2                      lds     -small,pc
5351 EF 92                      5351 EF 92                      lds     -small,sp
5353 EF 12                      5353 EF 12                      lds     -small,x
5355 EF 52                      5355 EF 52                      lds     -small,y
5357 EF C0                      5357 EF C0                      lds     0,pc
5359 EF 80                      5359 EF 80                      lds     0,sp
535B EF 00                      535B EF 00                      lds     0,x
535D EF 40                      535D EF 40                      lds     0,y
535F EF B0                      535F EF B0                      lds     1,sp+
5361 EF 30                      5361 EF 30                      lds     1,x+
5363 EF 70                      5363 EF 70                      lds     1,y+
5365 EF 81                      5365 EF 81                      lds     1,sp
5367 EF 01                      5367 EF 01                      lds     1,x
5369 EF 41                      5369 EF 41                      lds     1,y
536B EF BF                      536B EF BF                      lds     1,sp-
536D EF 3F                      536D EF 3F                      lds     1,x-
536F EF 7F                      536F EF 7F                      lds     1,y-
5371 EF F8 7D                   5371 EF F8 7D                   lds     125,pc
5374 EF F0 7D                   5374 EF F0 7D                   lds     125,sp
5377 EF E0 7D                   5377 EF E0 7D                   lds     125,x
537A EF E8 7D                   537A EF E8 7D                   lds     125,y
537D EF 8F                      537D EF 8F                      lds     15,sp
537F EF 0F                      537F EF 0F                      lds     15,x
5381 EF 4F                      5381 EF 4F                      lds     15,y
5383 EF F0 10                   5383 EF F0 10                   lds     16,sp
5386 EF E0 10                   5386 EF E0 10                   lds     16,x
5389 EF E8 10                   5389 EF E8 10                   lds     16,y
538C EF B7                      538C EF B7                      lds     8,sp+
538E EF 37                      538E EF 37                      lds     8,x+
5390 EF 77                      5390 EF 77                      lds     8,y+
5392 EF B8                      5392 EF B8                      lds     8,sp-
5394 EF 38                      5394 EF 38                      lds     8,x-
5396 EF 78                      5396 EF 78                      lds     8,y-
5398 EF F4                      5398 EF F4                      lds     a,sp
539A EF E4                      539A EF E4                      lds     a,x
539C EF EC                      539C EF EC                      lds     a,y
539E EF F5                      539E EF F5                      lds     b,sp
53A0 EF E5                      53A0 EF E5                      lds     b,x
53A2 EF ED                      53A2 EF ED                      lds     b,y
53A4 EF F6                      53A4 EF F6                      lds     d,sp
53A6 EF E6                      53A6 EF E6                      lds     d,x
53A8 EF EE                      53A8 EF EE                      lds     d,y
53AA DF 55                      53AA DF 55                      lds     dir
53AC FF 12 34                   53AC FF 12 34                   lds     ext
53AF EF F2 12 34                53AF EF F2 12 34                lds     ext,sp
53B3 EF E2 12 34                53B3 EF E2 12 34                lds     ext,x
53B7 EF EA 12 34                53B7 EF EA 12 34                lds     ext,y
53BB EF F8 37                   53BB EF F8 37                   lds     ind,pc
53BE EF F0 37                   53BE EF F0 37                   lds     ind,sp
53C1 EF E0 37                   53C1 EF E0 37                   lds     ind,x
53C4 EF E8 37                   53C4 EF E8 37                   lds     ind,y
53C7 EF CE                      53C7 EF CE                      lds     small,pc
53C9 EF 8E                      53C9 EF 8E                      lds     small,sp
53CB EF 0E                      53CB EF 0E                      lds     small,x
53CD EF 4E                      53CD EF 4E                      lds     small,y
53CF CE 00 72                   53CF CE 00 72                   ldx     #immed
53D2 CE 00 72                   53D2 CE 00 72                   ldx     #immed
53D5 EE A0                      53D5 EE A0                      ldx     1,+sp
53D7 EE 20                      53D7 EE 20                      ldx     1,+x
53D9 EE 60                      53D9 EE 60                      ldx     1,+y
53DB EE A7                      53DB EE A7                      ldx     8,+sp
53DD EE 27                      53DD EE 27                      ldx     8,+x
53DF EE 67                      53DF EE 67                      ldx     8,+y
53E1 EE C0                      53E1 EE C0                      ldx     ,pc
53E3 EE 80                      53E3 EE 80                      ldx     ,sp
53E5 EE 00                      53E5 EE 00                      ldx     ,x
53E7 EE 40                      53E7 EE 40                      ldx     ,y
53E9 EE AF                      53E9 EE AF                      ldx     1,-sp
53EB EE 2F                      53EB EE 2F                      ldx     1,-x
53ED EE 6F                      53ED EE 6F                      ldx     1,-y
53EF EE A8                      53EF EE A8                      ldx     8,-sp
53F1 EE 28                      53F1 EE 28                      ldx     8,-x
53F3 EE 68                      53F3 EE 68                      ldx     8,-y
53F5 EE 9F                      53F5 EE 9F                      ldx     -1,sp
53F7 EE 1F                      53F7 EE 1F                      ldx     -1,x
53F9 EE 5F                      53F9 EE 5F                      ldx     -1,y
53FB EE 90                      53FB EE 90                      ldx     -16,sp
53FD EE 10                      53FD EE 10                      ldx     -16,x
53FF EE 50                      53FF EE 50                      ldx     -16,y
5401 EE F1 EF                   5401 EE F1 EF                   ldx     -17,sp
5404 EE E1 EF                   5404 EE E1 EF                   ldx     -17,x
5407 EE E9 EF                   5407 EE E9 EF                   ldx     -17,y
540A EE D2                      540A EE D2                      ldx     -small,pc
540C EE 92                      540C EE 92                      ldx     -small,sp
540E EE 12                      540E EE 12                      ldx     -small,x
5410 EE 52                      5410 EE 52                      ldx     -small,y
5412 EE C0                      5412 EE C0                      ldx     0,pc
5414 EE 80                      5414 EE 80                      ldx     0,sp
5416 EE 00                      5416 EE 00                      ldx     0,x
5418 EE 40                      5418 EE 40                      ldx     0,y
541A EE B0                      541A EE B0                      ldx     1,sp+
541C EE 30                      541C EE 30                      ldx     1,x+
541E EE 70                      541E EE 70                      ldx     1,y+
5420 EE 81                      5420 EE 81                      ldx     1,sp
5422 EE 01                      5422 EE 01                      ldx     1,x
5424 EE 41                      5424 EE 41                      ldx     1,y
5426 EE BF                      5426 EE BF                      ldx     1,sp-
5428 EE 3F                      5428 EE 3F                      ldx     1,x-
542A EE 7F                      542A EE 7F                      ldx     1,y-
542C EE F8 7D                   542C EE F8 7D                   ldx     125,pc
542F EE F0 7D                   542F EE F0 7D                   ldx     125,sp
5432 EE E0 7D                   5432 EE E0 7D                   ldx     125,x
5435 EE E8 7D                   5435 EE E8 7D                   ldx     125,y
5438 EE 8F                      5438 EE 8F                      ldx     15,sp
543A EE 0F                      543A EE 0F                      ldx     15,x
543C EE 4F                      543C EE 4F                      ldx     15,y
543E EE F0 10                   543E EE F0 10                   ldx     16,sp
5441 EE E0 10                   5441 EE E0 10                   ldx     16,x
5444 EE E8 10                   5444 EE E8 10                   ldx     16,y
5447 EE B7                      5447 EE B7                      ldx     8,sp+
5449 EE 37                      5449 EE 37                      ldx     8,x+
544B EE 77                      544B EE 77                      ldx     8,y+
544D EE B8                      544D EE B8                      ldx     8,sp-
544F EE 38                      544F EE 38                      ldx     8,x-
5451 EE 78                      5451 EE 78                      ldx     8,y-
5453 EE F4                      5453 EE F4                      ldx     a,sp
5455 EE E4                      5455 EE E4                      ldx     a,x
5457 EE EC                      5457 EE EC                      ldx     a,y
5459 EE F5                      5459 EE F5                      ldx     b,sp
545B EE E5                      545B EE E5                      ldx     b,x
545D EE ED                      545D EE ED                      ldx     b,y
545F EE F6                      545F EE F6                      ldx     d,sp
5461 EE E6                      5461 EE E6                      ldx     d,x
5463 EE EE                      5463 EE EE                      ldx     d,y
5465 DE 55                      5465 DE 55                      ldx     dir
5467 DE 55                      5467 DE 55                      ldx     dir
5469 FE 12 34                   5469 FE 12 34                   ldx     ext
546C FE 12 34                   546C FE 12 34                   ldx     ext
546F EE F2 12 34                546F EE F2 12 34                ldx     ext,sp
5473 EE E2 12 34                5473 EE E2 12 34                ldx     ext,x
5477 EE EA 12 34                5477 EE EA 12 34                ldx     ext,y
547B EE F8 37                   547B EE F8 37                   ldx     ind,pc
547E EE F0 37                   547E EE F0 37                   ldx     ind,sp
5481 EE E0 37                   5481 EE E0 37                   ldx     ind,x
5484 EE E8 37                   5484 EE E8 37                   ldx     ind,y
5487 EE CE                      5487 EE CE                      ldx     small,pc
5489 EE 8E                      5489 EE 8E                      ldx     small,sp
548B EE 0E                      548B EE 0E                      ldx     small,x
548D EE 4E                      548D EE 4E                      ldx     small,y
548F CD 00 72                   548F CD 00 72                   ldy     #immed
5492 CD 00 72                   5492 CD 00 72                   ldy     #immed
5495 ED A0                      5495 ED A0                      ldy     1,+sp
5497 ED 20                      5497 ED 20                      ldy     1,+x
5499 ED 60                      5499 ED 60                      ldy     1,+y
549B ED A7                      549B ED A7                      ldy     8,+sp
549D ED 27                      549D ED 27                      ldy     8,+x
549F ED 67                      549F ED 67                      ldy     8,+y
54A1 ED C0                      54A1 ED C0                      ldy     ,pc
54A3 ED 80                      54A3 ED 80                      ldy     ,sp
54A5 ED 00                      54A5 ED 00                      ldy     ,x
54A7 ED 40                      54A7 ED 40                      ldy     ,y
54A9 ED AF                      54A9 ED AF                      ldy     1,-sp
54AB ED 2F                      54AB ED 2F                      ldy     1,-x
54AD ED 6F                      54AD ED 6F                      ldy     1,-y
54AF ED A8                      54AF ED A8                      ldy     8,-sp
54B1 ED 28                      54B1 ED 28                      ldy     8,-x
54B3 ED 68                      54B3 ED 68                      ldy     8,-y
54B5 ED 9F                      54B5 ED 9F                      ldy     -1,sp
54B7 ED 1F                      54B7 ED 1F                      ldy     -1,x
54B9 ED 5F                      54B9 ED 5F                      ldy     -1,y
54BB ED 90                      54BB ED 90                      ldy     -16,sp
54BD ED 10                      54BD ED 10                      ldy     -16,x
54BF ED 50                      54BF ED 50                      ldy     -16,y
54C1 ED F1 EF                   54C1 ED F1 EF                   ldy     -17,sp
54C4 ED E1 EF                   54C4 ED E1 EF                   ldy     -17,x
54C7 ED E9 EF                   54C7 ED E9 EF                   ldy     -17,y
54CA ED D2                      54CA ED D2                      ldy     -small,pc
54CC ED 92                      54CC ED 92                      ldy     -small,sp
54CE ED 12                      54CE ED 12                      ldy     -small,x
54D0 ED 52                      54D0 ED 52                      ldy     -small,y
54D2 ED C0                      54D2 ED C0                      ldy     0,pc
54D4 ED 80                      54D4 ED 80                      ldy     0,sp
54D6 ED 00                      54D6 ED 00                      ldy     0,x
54D8 ED 40                      54D8 ED 40                      ldy     0,y
54DA ED B0                      54DA ED B0                      ldy     1,sp+
54DC ED 30                      54DC ED 30                      ldy     1,x+
54DE ED 70                      54DE ED 70                      ldy     1,y+
54E0 ED 81                      54E0 ED 81                      ldy     1,sp
54E2 ED 01                      54E2 ED 01                      ldy     1,x
54E4 ED 41                      54E4 ED 41                      ldy     1,y
54E6 ED BF                      54E6 ED BF                      ldy     1,sp-
54E8 ED 3F                      54E8 ED 3F                      ldy     1,x-
54EA ED 7F                      54EA ED 7F                      ldy     1,y-
54EC ED F8 7D                   54EC ED F8 7D                   ldy     125,pc
54EF ED F0 7D                   54EF ED F0 7D                   ldy     125,sp
54F2 ED E0 7D                   54F2 ED E0 7D                   ldy     125,x
54F5 ED E8 7D                   54F5 ED E8 7D                   ldy     125,y
54F8 ED 8F                      54F8 ED 8F                      ldy     15,sp
54FA ED 0F                      54FA ED 0F                      ldy     15,x
54FC ED 4F                      54FC ED 4F                      ldy     15,y
54FE ED F0 10                   54FE ED F0 10                   ldy     16,sp
5501 ED E0 10                   5501 ED E0 10                   ldy     16,x
5504 ED E8 10                   5504 ED E8 10                   ldy     16,y
5507 ED B7                      5507 ED B7                      ldy     8,sp+
5509 ED 37                      5509 ED 37                      ldy     8,x+
550B ED 77                      550B ED 77                      ldy     8,y+
550D ED B8                      550D ED B8                      ldy     8,sp-
550F ED 38                      550F ED 38                      ldy     8,x-
5511 ED 78                      5511 ED 78                      ldy     8,y-
5513 ED F4                      5513 ED F4                      ldy     a,sp
5515 ED E4                      5515 ED E4                      ldy     a,x
5517 ED EC                      5517 ED EC                      ldy     a,y
5519 ED F5                      5519 ED F5                      ldy     b,sp
551B ED E5                      551B ED E5                      ldy     b,x
551D ED ED                      551D ED ED                      ldy     b,y
551F ED F6                      551F ED F6                      ldy     d,sp
5521 ED E6                      5521 ED E6                      ldy     d,x
5523 ED EE                      5523 ED EE                      ldy     d,y
5525 DD 55                      5525 DD 55                      ldy     dir
5527 DD 55                      5527 DD 55                      ldy     dir
5529 FD 12 34                   5529 FD 12 34                   ldy     ext
552C FD 12 34                   552C FD 12 34                   ldy     ext
552F ED F2 12 34                552F ED F2 12 34                ldy     ext,sp
5533 ED E2 12 34                5533 ED E2 12 34                ldy     ext,x
5537 ED EA 12 34                5537 ED EA 12 34                ldy     ext,y
553B ED F8 37                   553B ED F8 37                   ldy     ind,pc
553E ED F0 37                   553E ED F0 37                   ldy     ind,sp
5541 ED E0 37                   5541 ED E0 37                   ldy     ind,x
5544 ED E8 37                   5544 ED E8 37                   ldy     ind,y
5547 ED CE                      5547 ED CE                      ldy     small,pc
5549 ED 8E                      5549 ED 8E                      ldy     small,sp
554B ED 0E                      554B ED 0E                      ldy     small,x
554D ED 4E                      554D ED 4E                      ldy     small,y
554F 1B A0                      554F 1B A0                      leas    1,+sp
5551 1B 20                      5551 1B 20                      leas    1,+x
5553 1B 60                      5553 1B 60                      leas    1,+y
5555 1B A7                      5555 1B A7                      leas    8,+sp
5557 1B 27                      5557 1B 27                      leas    8,+x
5559 1B 67                      5559 1B 67                      leas    8,+y
555B 1B C0                      555B 1B C0                      leas    ,pc
555D 1B 80                      555D 1B 80                      leas    ,sp
555F 1B 00                      555F 1B 00                      leas    ,x
5561 1B 40                      5561 1B 40                      leas    ,y
5563 1B AF                      5563 1B AF                      leas    1,-sp
5565 1B 2F                      5565 1B 2F                      leas    1,-x
5567 1B 6F                      5567 1B 6F                      leas    1,-y
5569 1B A8                      5569 1B A8                      leas    8,-sp
556B 1B 28                      556B 1B 28                      leas    8,-x
556D 1B 68                      556D 1B 68                      leas    8,-y
556F 1B 9F                      556F 1B 9F                      leas    -1,sp
5571 1B 1F                      5571 1B 1F                      leas    -1,x
5573 1B 5F                      5573 1B 5F                      leas    -1,y
5575 1B 90                      5575 1B 90                      leas    -16,sp
5577 1B 10                      5577 1B 10                      leas    -16,x
5579 1B 50                      5579 1B 50                      leas    -16,y
557B 1B F1 EF                   557B 1B F1 EF                   leas    -17,sp
557E 1B E1 EF                   557E 1B E1 EF                   leas    -17,x
5581 1B E9 EF                   5581 1B E9 EF                   leas    -17,y
5584 1B D2                      5584 1B D2                      leas    -small,pc
5586 1B 92                      5586 1B 92                      leas    -small,sp
5588 1B 12                      5588 1B 12                      leas    -small,x
558A 1B 52                      558A 1B 52                      leas    -small,y
558C 1B C0                      558C 1B C0                      leas    0,pc
558E 1B 80                      558E 1B 80                      leas    0,sp
5590 1B 00                      5590 1B 00                      leas    0,x
5592 1B 40                      5592 1B 40                      leas    0,y
5594 1B B0                      5594 1B B0                      leas    1,sp+
5596 1B 30                      5596 1B 30                      leas    1,x+
5598 1B 70                      5598 1B 70                      leas    1,y+
559A 1B 81                      559A 1B 81                      leas    1,sp
559C 1B 01                      559C 1B 01                      leas    1,x
559E 1B 41                      559E 1B 41                      leas    1,y
55A0 1B BF                      55A0 1B BF                      leas    1,sp-
55A2 1B 3F                      55A2 1B 3F                      leas    1,x-
55A4 1B 7F                      55A4 1B 7F                      leas    1,y-
55A6 1B F8 7D                   55A6 1B F8 7D                   leas    125,pc
55A9 1B F0 7D                   55A9 1B F0 7D                   leas    125,sp
55AC 1B E0 7D                   55AC 1B E0 7D                   leas    125,x
55AF 1B E8 7D                   55AF 1B E8 7D                   leas    125,y
55B2 1B 8F                      55B2 1B 8F                      leas    15,sp
55B4 1B 0F                      55B4 1B 0F                      leas    15,x
55B6 1B 4F                      55B6 1B 4F                      leas    15,y
55B8 1B F0 10                   55B8 1B F0 10                   leas    16,sp
55BB 1B E0 10                   55BB 1B E0 10                   leas    16,x
55BE 1B E8 10                   55BE 1B E8 10                   leas    16,y
55C1 1B B7                      55C1 1B B7                      leas    8,sp+
55C3 1B 37                      55C3 1B 37                      leas    8,x+
55C5 1B 77                      55C5 1B 77                      leas    8,y+
55C7 1B B8                      55C7 1B B8                      leas    8,sp-
55C9 1B 38                      55C9 1B 38                      leas    8,x-
55CB 1B 78                      55CB 1B 78                      leas    8,y-
55CD 1B F4                      55CD 1B F4                      leas    a,sp
55CF 1B E4                      55CF 1B E4                      leas    a,x
55D1 1B EC                      55D1 1B EC                      leas    a,y
55D3 1B F5                      55D3 1B F5                      leas    b,sp
55D5 1B E5                      55D5 1B E5                      leas    b,x
55D7 1B ED                      55D7 1B ED                      leas    b,y
55D9 1B F6                      55D9 1B F6                      leas    d,sp
55DB 1B E6                      55DB 1B E6                      leas    d,x
55DD 1B EE                      55DD 1B EE                      leas    d,y
55DF 1B F2 12 34                55DF 1B F2 12 34                leas    ext,sp
55E3 1B E2 12 34                55E3 1B E2 12 34                leas    ext,x
55E7 1B EA 12 34                55E7 1B EA 12 34                leas    ext,y
55EB 1B F8 37                   55EB 1B F8 37                   leas    ind,pc
55EE 1B F0 37                   55EE 1B F0 37                   leas    ind,sp
55F1 1B E0 37                   55F1 1B E0 37                   leas    ind,x
55F4 1B E8 37                   55F4 1B E8 37                   leas    ind,y
55F7 1B CE                      55F7 1B CE                      leas    small,pc
55F9 1B 8E                      55F9 1B 8E                      leas    small,sp
55FB 1B 0E                      55FB 1B 0E                      leas    small,x
55FD 1B 4E                      55FD 1B 4E                      leas    small,y
55FF 1A A0                      55FF 1A A0                      leax    1,+sp
5601 1A 20                      5601 1A 20                      leax    1,+x
5603 1A 60                      5603 1A 60                      leax    1,+y
5605 1A A7                      5605 1A A7                      leax    8,+sp
5607 1A 27                      5607 1A 27                      leax    8,+x
5609 1A 67                      5609 1A 67                      leax    8,+y
560B 1A C0                      560B 1A C0                      leax    ,pc
560D 1A 80                      560D 1A 80                      leax    ,sp
560F 1A 00                      560F 1A 00                      leax    ,x
5611 1A 40                      5611 1A 40                      leax    ,y
5613 1A AF                      5613 1A AF                      leax    1,-sp
5615 1A 2F                      5615 1A 2F                      leax    1,-x
5617 1A 6F                      5617 1A 6F                      leax    1,-y
5619 1A A8                      5619 1A A8                      leax    8,-sp
561B 1A 28                      561B 1A 28                      leax    8,-x
561D 1A 68                      561D 1A 68                      leax    8,-y
561F 1A 9F                      561F 1A 9F                      leax    -1,sp
5621 1A 1F                      5621 1A 1F                      leax    -1,x
5623 1A 5F                      5623 1A 5F                      leax    -1,y
5625 1A 90                      5625 1A 90                      leax    -16,sp
5627 1A 10                      5627 1A 10                      leax    -16,x
5629 1A 50                      5629 1A 50                      leax    -16,y
562B 1A F1 EF                   562B 1A F1 EF                   leax    -17,sp
562E 1A E1 EF                   562E 1A E1 EF                   leax    -17,x
5631 1A E9 EF                   5631 1A E9 EF                   leax    -17,y
5634 1A D2                      5634 1A D2                      leax    -small,pc
5636 1A 92                      5636 1A 92                      leax    -small,sp
5638 1A 12                      5638 1A 12                      leax    -small,x
563A 1A 52                      563A 1A 52                      leax    -small,y
563C 1A C0                      563C 1A C0                      leax    0,pc
563E 1A 80                      563E 1A 80                      leax    0,sp
5640 1A 00                      5640 1A 00                      leax    0,x
5642 1A 40                      5642 1A 40                      leax    0,y
5644 1A B0                      5644 1A B0                      leax    1,sp+
5646 1A 30                      5646 1A 30                      leax    1,x+
5648 1A 70                      5648 1A 70                      leax    1,y+
564A 1A 81                      564A 1A 81                      leax    1,sp
564C 1A 01                      564C 1A 01                      leax    1,x
564E 1A 41                      564E 1A 41                      leax    1,y
5650 1A BF                      5650 1A BF                      leax    1,sp-
5652 1A 3F                      5652 1A 3F                      leax    1,x-
5654 1A 7F                      5654 1A 7F                      leax    1,y-
5656 1A F8 7D                   5656 1A F8 7D                   leax    125,pc
5659 1A F0 7D                   5659 1A F0 7D                   leax    125,sp
565C 1A E0 7D                   565C 1A E0 7D                   leax    125,x
565F 1A E8 7D                   565F 1A E8 7D                   leax    125,y
5662 1A 8F                      5662 1A 8F                      leax    15,sp
5664 1A 0F                      5664 1A 0F                      leax    15,x
5666 1A 4F                      5666 1A 4F                      leax    15,y
5668 1A F0 10                   5668 1A F0 10                   leax    16,sp
566B 1A E0 10                   566B 1A E0 10                   leax    16,x
566E 1A E8 10                   566E 1A E8 10                   leax    16,y
5671 1A B7                      5671 1A B7                      leax    8,sp+
5673 1A 37                      5673 1A 37                      leax    8,x+
5675 1A 77                      5675 1A 77                      leax    8,y+
5677 1A B8                      5677 1A B8                      leax    8,sp-
5679 1A 38                      5679 1A 38                      leax    8,x-
567B 1A 78                      567B 1A 78                      leax    8,y-
567D 1A F4                      567D 1A F4                      leax    a,sp
567F 1A E4                      567F 1A E4                      leax    a,x
5681 1A EC                      5681 1A EC                      leax    a,y
5683 1A F5                      5683 1A F5                      leax    b,sp
5685 1A E5                      5685 1A E5                      leax    b,x
5687 1A ED                      5687 1A ED                      leax    b,y
5689 1A F6                      5689 1A F6                      leax    d,sp
568B 1A E6                      568B 1A E6                      leax    d,x
568D 1A EE                      568D 1A EE                      leax    d,y
568F 1A F2 12 34                568F 1A F2 12 34                leax    ext,sp
5693 1A E2 12 34                5693 1A E2 12 34                leax    ext,x
5697 1A EA 12 34                5697 1A EA 12 34                leax    ext,y
569B 1A F8 37                   569B 1A F8 37                   leax    ind,pc
569E 1A F0 37                   569E 1A F0 37                   leax    ind,sp
56A1 1A E0 37                   56A1 1A E0 37                   leax    ind,x
56A4 1A E8 37                   56A4 1A E8 37                   leax    ind,y
56A7 1A CE                      56A7 1A CE                      leax    small,pc
56A9 1A 8E                      56A9 1A 8E                      leax    small,sp
56AB 1A 0E                      56AB 1A 0E                      leax    small,x
56AD 1A 4E                      56AD 1A 4E                      leax    small,y
56AF 19 A0                      56AF 19 A0                      leay    1,+sp
56B1 19 20                      56B1 19 20                      leay    1,+x
56B3 19 60                      56B3 19 60                      leay    1,+y
56B5 19 A7                      56B5 19 A7                      leay    8,+sp
56B7 19 27                      56B7 19 27                      leay    8,+x
56B9 19 67                      56B9 19 67                      leay    8,+y
56BB 19 C0                      56BB 19 C0                      leay    ,pc
56BD 19 80                      56BD 19 80                      leay    ,sp
56BF 19 00                      56BF 19 00                      leay    ,x
56C1 19 40                      56C1 19 40                      leay    ,y
56C3 19 AF                      56C3 19 AF                      leay    1,-sp
56C5 19 2F                      56C5 19 2F                      leay    1,-x
56C7 19 6F                      56C7 19 6F                      leay    1,-y
56C9 19 A8                      56C9 19 A8                      leay    8,-sp
56CB 19 28                      56CB 19 28                      leay    8,-x
56CD 19 68                      56CD 19 68                      leay    8,-y
56CF 19 9F                      56CF 19 9F                      leay    -1,sp
56D1 19 1F                      56D1 19 1F                      leay    -1,x
56D3 19 5F                      56D3 19 5F                      leay    -1,y
56D5 19 90                      56D5 19 90                      leay    -16,sp
56D7 19 10                      56D7 19 10                      leay    -16,x
56D9 19 50                      56D9 19 50                      leay    -16,y
56DB 19 F1 EF                   56DB 19 F1 EF                   leay    -17,sp
56DE 19 E1 EF                   56DE 19 E1 EF                   leay    -17,x
56E1 19 E9 EF                   56E1 19 E9 EF                   leay    -17,y
56E4 19 D2                      56E4 19 D2                      leay    -small,pc
56E6 19 92                      56E6 19 92                      leay    -small,sp
56E8 19 12                      56E8 19 12                      leay    -small,x
56EA 19 52                      56EA 19 52                      leay    -small,y
56EC 19 C0                      56EC 19 C0                      leay    0,pc
56EE 19 80                      56EE 19 80                      leay    0,sp
56F0 19 00                      56F0 19 00                      leay    0,x
56F2 19 40                      56F2 19 40                      leay    0,y
56F4 19 B0                      56F4 19 B0                      leay    1,sp+
56F6 19 30                      56F6 19 30                      leay    1,x+
56F8 19 70                      56F8 19 70                      leay    1,y+
56FA 19 81                      56FA 19 81                      leay    1,sp
56FC 19 01                      56FC 19 01                      leay    1,x
56FE 19 41                      56FE 19 41                      leay    1,y
5700 19 BF                      5700 19 BF                      leay    1,sp-
5702 19 3F                      5702 19 3F                      leay    1,x-
5704 19 7F                      5704 19 7F                      leay    1,y-
5706 19 F8 7D                   5706 19 F8 7D                   leay    125,pc
5709 19 F0 7D                   5709 19 F0 7D                   leay    125,sp
570C 19 E0 7D                   570C 19 E0 7D                   leay    125,x
570F 19 E8 7D                   570F 19 E8 7D                   leay    125,y
5712 19 8F                      5712 19 8F                      leay    15,sp
5714 19 0F                      5714 19 0F                      leay    15,x
5716 19 4F                      5716 19 4F                      leay    15,y
5718 19 F0 10                   5718 19 F0 10                   leay    16,sp
571B 19 E0 10                   571B 19 E0 10                   leay    16,x
571E 19 E8 10                   571E 19 E8 10                   leay    16,y
5721 19 B7                      5721 19 B7                      leay    8,sp+
5723 19 37                      5723 19 37                      leay    8,x+
5725 19 77                      5725 19 77                      leay    8,y+
5727 19 B8                      5727 19 B8                      leay    8,sp-
5729 19 38                      5729 19 38                      leay    8,x-
572B 19 78                      572B 19 78                      leay    8,y-
572D 19 F4                      572D 19 F4                      leay    a,sp
572F 19 E4                      572F 19 E4                      leay    a,x
5731 19 EC                      5731 19 EC                      leay    a,y
5733 19 F5                      5733 19 F5                      leay    b,sp
5735 19 E5                      5735 19 E5                      leay    b,x
5737 19 ED                      5737 19 ED                      leay    b,y
5739 19 F6                      5739 19 F6                      leay    d,sp
573B 19 E6                      573B 19 E6                      leay    d,x
573D 19 EE                      573D 19 EE                      leay    d,y
573F 19 F2 12 34                573F 19 F2 12 34                leay    ext,sp
5743 19 E2 12 34                5743 19 E2 12 34                leay    ext,x
5747 19 EA 12 34                5747 19 EA 12 34                leay    ext,y
574B 19 F8 37                   574B 19 F8 37                   leay    ind,pc
574E 19 F0 37                   574E 19 F0 37                   leay    ind,sp
5751 19 E0 37                   5751 19 E0 37                   leay    ind,x
5754 19 E8 37                   5754 19 E8 37                   leay    ind,y
5757 19 CE                      5757 19 CE                      leay    small,pc
5759 19 8E                      5759 19 8E                      leay    small,sp
575B 19 0E                      575B 19 0E                      leay    small,x
575D 19 4E                      575D 19 4E                      leay    small,y
575F 68 A0                      575F 68 A0                      lsl     1,+sp
5761 68 20                      5761 68 20                      lsl     1,+x
5763 68 60                      5763 68 60                      lsl     1,+y
5765 68 A7                      5765 68 A7                      lsl     8,+sp
5767 68 27                      5767 68 27                      lsl     8,+x
5769 68 67                      5769 68 67                      lsl     8,+y
576B 68 C0                      576B 68 C0                      lsl     ,pc
576D 68 80                      576D 68 80                      lsl     ,sp
576F 68 00                      576F 68 00                      lsl     ,x
5771 68 40                      5771 68 40                      lsl     ,y
5773 68 AF                      5773 68 AF                      lsl     1,-sp
5775 68 2F                      5775 68 2F                      lsl     1,-x
5777 68 6F                      5777 68 6F                      lsl     1,-y
5779 68 A8                      5779 68 A8                      lsl     8,-sp
577B 68 28                      577B 68 28                      lsl     8,-x
577D 68 68                      577D 68 68                      lsl     8,-y
577F 68 9F                      577F 68 9F                      lsl     -1,sp
5781 68 1F                      5781 68 1F                      lsl     -1,x
5783 68 5F                      5783 68 5F                      lsl     -1,y
5785 68 90                      5785 68 90                      lsl     -16,sp
5787 68 10                      5787 68 10                      lsl     -16,x
5789 68 50                      5789 68 50                      lsl     -16,y
578B 68 F1 EF                   578B 68 F1 EF                   lsl     -17,sp
578E 68 E1 EF                   578E 68 E1 EF                   lsl     -17,x
5791 68 E9 EF                   5791 68 E9 EF                   lsl     -17,y
5794 68 D2                      5794 68 D2                      lsl     -small,pc
5796 68 92                      5796 68 92                      lsl     -small,sp
5798 68 12                      5798 68 12                      lsl     -small,x
579A 68 52                      579A 68 52                      lsl     -small,y
579C 68 C0                      579C 68 C0                      lsl     0,pc
579E 68 80                      579E 68 80                      lsl     0,sp
57A0 68 00                      57A0 68 00                      lsl     0,x
57A2 68 40                      57A2 68 40                      lsl     0,y
57A4 68 B0                      57A4 68 B0                      lsl     1,sp+
57A6 68 30                      57A6 68 30                      lsl     1,x+
57A8 68 70                      57A8 68 70                      lsl     1,y+
57AA 68 81                      57AA 68 81                      lsl     1,sp
57AC 68 01                      57AC 68 01                      lsl     1,x
57AE 68 41                      57AE 68 41                      lsl     1,y
57B0 68 BF                      57B0 68 BF                      lsl     1,sp-
57B2 68 3F                      57B2 68 3F                      lsl     1,x-
57B4 68 7F                      57B4 68 7F                      lsl     1,y-
57B6 68 F8 7D                   57B6 68 F8 7D                   lsl     125,pc
57B9 68 F0 7D                   57B9 68 F0 7D                   lsl     125,sp
57BC 68 E0 7D                   57BC 68 E0 7D                   lsl     125,x
57BF 68 E8 7D                   57BF 68 E8 7D                   lsl     125,y
57C2 68 8F                      57C2 68 8F                      lsl     15,sp
57C4 68 0F                      57C4 68 0F                      lsl     15,x
57C6 68 4F                      57C6 68 4F                      lsl     15,y
57C8 68 F0 10                   57C8 68 F0 10                   lsl     16,sp
57CB 68 E0 10                   57CB 68 E0 10                   lsl     16,x
57CE 68 E8 10                   57CE 68 E8 10                   lsl     16,y
57D1 68 B7                      57D1 68 B7                      lsl     8,sp+
57D3 68 37                      57D3 68 37                      lsl     8,x+
57D5 68 77                      57D5 68 77                      lsl     8,y+
57D7 68 B8                      57D7 68 B8                      lsl     8,sp-
57D9 68 38                      57D9 68 38                      lsl     8,x-
57DB 68 78                      57DB 68 78                      lsl     8,y-
57DD 68 F4                      57DD 68 F4                      lsl     a,sp
57DF 68 E4                      57DF 68 E4                      lsl     a,x
57E1 68 EC                      57E1 68 EC                      lsl     a,y
57E3 68 F5                      57E3 68 F5                      lsl     b,sp
57E5 68 E5                      57E5 68 E5                      lsl     b,x
57E7 68 ED                      57E7 68 ED                      lsl     b,y
57E9 68 F6                      57E9 68 F6                      lsl     d,sp
57EB 68 E6                      57EB 68 E6                      lsl     d,x
57ED 68 EE                      57ED 68 EE                      lsl     d,y
57EF 78 00 55                   57EF 78 00 55                   lsl     dir
57F2 78 12 34                   57F2 78 12 34                   lsl     ext
57F5 78 12 34                   57F5 78 12 34                   lsl     ext
57F8 68 F2 12 34                57F8 68 F2 12 34                lsl     ext,sp
57FC 68 E2 12 34                57FC 68 E2 12 34                lsl     ext,x
5800 68 EA 12 34                5800 68 EA 12 34                lsl     ext,y
5804 68 F8 37                   5804 68 F8 37                   lsl     ind,pc
5807 68 F0 37                   5807 68 F0 37                   lsl     ind,sp
580A 68 E0 37                   580A 68 E0 37                   lsl     ind,x
580D 68 E8 37                   580D 68 E8 37                   lsl     ind,y
5810 68 CE                      5810 68 CE                      lsl     small,pc
5812 68 8E                      5812 68 8E                      lsl     small,sp
5814 68 0E                      5814 68 0E                      lsl     small,x
5816 68 4E                      5816 68 4E                      lsl     small,y
5818 48                         5818 48                         lsla
5819 58                         5819 58                         lslb
581A 59                         581A 59                         lsld
581B 64 A0                      581B 64 A0                      lsr     1,+sp
581D 64 20                      581D 64 20                      lsr     1,+x
581F 64 60                      581F 64 60                      lsr     1,+y
5821 64 A7                      5821 64 A7                      lsr     8,+sp
5823 64 27                      5823 64 27                      lsr     8,+x
5825 64 67                      5825 64 67                      lsr     8,+y
5827 64 C0                      5827 64 C0                      lsr     ,pc
5829 64 80                      5829 64 80                      lsr     ,sp
582B 64 00                      582B 64 00                      lsr     ,x
582D 64 40                      582D 64 40                      lsr     ,y
582F 64 AF                      582F 64 AF                      lsr     1,-sp
5831 64 2F                      5831 64 2F                      lsr     1,-x
5833 64 6F                      5833 64 6F                      lsr     1,-y
5835 64 A8                      5835 64 A8                      lsr     8,-sp
5837 64 28                      5837 64 28                      lsr     8,-x
5839 64 68                      5839 64 68                      lsr     8,-y
583B 64 9F                      583B 64 9F                      lsr     -1,sp
583D 64 1F                      583D 64 1F                      lsr     -1,x
583F 64 5F                      583F 64 5F                      lsr     -1,y
5841 64 90                      5841 64 90                      lsr     -16,sp
5843 64 10                      5843 64 10                      lsr     -16,x
5845 64 50                      5845 64 50                      lsr     -16,y
5847 64 F1 EF                   5847 64 F1 EF                   lsr     -17,sp
584A 64 E1 EF                   584A 64 E1 EF                   lsr     -17,x
584D 64 E9 EF                   584D 64 E9 EF                   lsr     -17,y
5850 64 D2                      5850 64 D2                      lsr     -small,pc
5852 64 92                      5852 64 92                      lsr     -small,sp
5854 64 12                      5854 64 12                      lsr     -small,x
5856 64 52                      5856 64 52                      lsr     -small,y
5858 64 C0                      5858 64 C0                      lsr     0,pc
585A 64 80                      585A 64 80                      lsr     0,sp
585C 64 00                      585C 64 00                      lsr     0,x
585E 64 40                      585E 64 40                      lsr     0,y
5860 64 B0                      5860 64 B0                      lsr     1,sp+
5862 64 30                      5862 64 30                      lsr     1,x+
5864 64 70                      5864 64 70                      lsr     1,y+
5866 64 81                      5866 64 81                      lsr     1,sp
5868 64 01                      5868 64 01                      lsr     1,x
586A 64 41                      586A 64 41                      lsr     1,y
586C 64 BF                      586C 64 BF                      lsr     1,sp-
586E 64 3F                      586E 64 3F                      lsr     1,x-
5870 64 7F                      5870 64 7F                      lsr     1,y-
5872 64 F8 7D                   5872 64 F8 7D                   lsr     125,pc
5875 64 F0 7D                   5875 64 F0 7D                   lsr     125,sp
5878 64 E0 7D                   5878 64 E0 7D                   lsr     125,x
587B 64 E8 7D                   587B 64 E8 7D                   lsr     125,y
587E 64 8F                      587E 64 8F                      lsr     15,sp
5880 64 0F                      5880 64 0F                      lsr     15,x
5882 64 4F                      5882 64 4F                      lsr     15,y
5884 64 F0 10                   5884 64 F0 10                   lsr     16,sp
5887 64 E0 10                   5887 64 E0 10                   lsr     16,x
588A 64 E8 10                   588A 64 E8 10                   lsr     16,y
588D 64 B7                      588D 64 B7                      lsr     8,sp+
588F 64 37                      588F 64 37                      lsr     8,x+
5891 64 77                      5891 64 77                      lsr     8,y+
5893 64 B8                      5893 64 B8                      lsr     8,sp-
5895 64 38                      5895 64 38                      lsr     8,x-
5897 64 78                      5897 64 78                      lsr     8,y-
5899 64 F4                      5899 64 F4                      lsr     a,sp
589B 64 E4                      589B 64 E4                      lsr     a,x
589D 64 EC                      589D 64 EC                      lsr     a,y
589F 64 F5                      589F 64 F5                      lsr     b,sp
58A1 64 E5                      58A1 64 E5                      lsr     b,x
58A3 64 ED                      58A3 64 ED                      lsr     b,y
58A5 64 F6                      58A5 64 F6                      lsr     d,sp
58A7 64 E6                      58A7 64 E6                      lsr     d,x
58A9 64 EE                      58A9 64 EE                      lsr     d,y
58AB 74 00 55                   58AB 74 00 55                   lsr     dir
58AE 74 12 34                   58AE 74 12 34                   lsr     ext
58B1 74 12 34                   58B1 74 12 34                   lsr     ext
58B4 64 F2 12 34                58B4 64 F2 12 34                lsr     ext,sp
58B8 64 E2 12 34                58B8 64 E2 12 34                lsr     ext,x
58BC 64 EA 12 34                58BC 64 EA 12 34                lsr     ext,y
58C0 64 F8 37                   58C0 64 F8 37                   lsr     ind,pc
58C3 64 F0 37                   58C3 64 F0 37                   lsr     ind,sp
58C6 64 E0 37                   58C6 64 E0 37                   lsr     ind,x
58C9 64 E8 37                   58C9 64 E8 37                   lsr     ind,y
58CC 64 CE                      58CC 64 CE                      lsr     small,pc
58CE 64 8E                      58CE 64 8E                      lsr     small,sp
58D0 64 0E                      58D0 64 0E                      lsr     small,x
58D2 64 4E                      58D2 64 4E                      lsr     small,y
58D4 44                         58D4 44                         lsra
58D5 54                         58D5 54                         lsrb
58D6 49                         58D6 49                         lsrd
58D7 49                         58D7 49                         lsrd
58D8 18 18 A0                   58D8 18 18 A0                   maxa    1,+sp
58DB 18 18 20                   58DB 18 18 20                   maxa    1,+x
58DE 18 18 60                   58DE 18 18 60                   maxa    1,+y
58E1 18 18 A7                   58E1 18 18 A7                   maxa    8,+sp
58E4 18 18 27                   58E4 18 18 27                   maxa    8,+x
58E7 18 18 67                   58E7 18 18 67                   maxa    8,+y
58EA 18 18 C0                   58EA 18 18 C0                   maxa    ,pc
58ED 18 18 80                   58ED 18 18 80                   maxa    ,sp
58F0 18 18 00                   58F0 18 18 00                   maxa    ,x
58F3 18 18 40                   58F3 18 18 40                   maxa    ,y
58F6 18 18 AF                   58F6 18 18 AF                   maxa    1,-sp
58F9 18 18 2F                   58F9 18 18 2F                   maxa    1,-x
58FC 18 18 6F                   58FC 18 18 6F                   maxa    1,-y
58FF 18 18 A8                   58FF 18 18 A8                   maxa    8,-sp
5902 18 18 28                   5902 18 18 28                   maxa    8,-x
5905 18 18 68                   5905 18 18 68                   maxa    8,-y
5908 18 18 9F                   5908 18 18 9F                   maxa    -1,sp
590B 18 18 1F                   590B 18 18 1F                   maxa    -1,x
590E 18 18 5F                   590E 18 18 5F                   maxa    -1,y
5911 18 18 90                   5911 18 18 90                   maxa    -16,sp
5914 18 18 10                   5914 18 18 10                   maxa    -16,x
5917 18 18 50                   5917 18 18 50                   maxa    -16,y
591A 18 18 F1 EF                591A 18 18 F1 EF                maxa    -17,sp
591E 18 18 E1 EF                591E 18 18 E1 EF                maxa    -17,x
5922 18 18 E9 EF                5922 18 18 E9 EF                maxa    -17,y
5926 18 18 D2                   5926 18 18 D2                   maxa    -small,pc
5929 18 18 92                   5929 18 18 92                   maxa    -small,sp
592C 18 18 12                   592C 18 18 12                   maxa    -small,x
592F 18 18 52                   592F 18 18 52                   maxa    -small,y
5932 18 18 C0                   5932 18 18 C0                   maxa    0,pc
5935 18 18 80                   5935 18 18 80                   maxa    0,sp
5938 18 18 00                   5938 18 18 00                   maxa    0,x
593B 18 18 40                   593B 18 18 40                   maxa    0,y
593E 18 18 B0                   593E 18 18 B0                   maxa    1,sp+
5941 18 18 30                   5941 18 18 30                   maxa    1,x+
5944 18 18 70                   5944 18 18 70                   maxa    1,y+
5947 18 18 81                   5947 18 18 81                   maxa    1,sp
594A 18 18 01                   594A 18 18 01                   maxa    1,x
594D 18 18 41                   594D 18 18 41                   maxa    1,y
5950 18 18 BF                   5950 18 18 BF                   maxa    1,sp-
5953 18 18 3F                   5953 18 18 3F                   maxa    1,x-
5956 18 18 7F                   5956 18 18 7F                   maxa    1,y-
5959 18 18 F8 7D                5959 18 18 F8 7D                maxa    125,pc
595D 18 18 F0 7D                595D 18 18 F0 7D                maxa    125,sp
5961 18 18 E0 7D                5961 18 18 E0 7D                maxa    125,x
5965 18 18 E8 7D                5965 18 18 E8 7D                maxa    125,y
5969 18 18 8F                   5969 18 18 8F                   maxa    15,sp
596C 18 18 0F                   596C 18 18 0F                   maxa    15,x
596F 18 18 4F                   596F 18 18 4F                   maxa    15,y
5972 18 18 F0 10                5972 18 18 F0 10                maxa    16,sp
5976 18 18 E0 10                5976 18 18 E0 10                maxa    16,x
597A 18 18 E8 10                597A 18 18 E8 10                maxa    16,y
597E 18 18 B7                   597E 18 18 B7                   maxa    8,sp+
5981 18 18 37                   5981 18 18 37                   maxa    8,x+
5984 18 18 77                   5984 18 18 77                   maxa    8,y+
5987 18 18 B8                   5987 18 18 B8                   maxa    8,sp-
598A 18 18 38                   598A 18 18 38                   maxa    8,x-
598D 18 18 78                   598D 18 18 78                   maxa    8,y-
5990 18 18 F4                   5990 18 18 F4                   maxa    a,sp
5993 18 18 E4                   5993 18 18 E4                   maxa    a,x
5996 18 18 EC                   5996 18 18 EC                   maxa    a,y
5999 18 18 F5                   5999 18 18 F5                   maxa    b,sp
599C 18 18 E5                   599C 18 18 E5                   maxa    b,x
599F 18 18 ED                   599F 18 18 ED                   maxa    b,y
59A2 18 18 F6                   59A2 18 18 F6                   maxa    d,sp
59A5 18 18 E6                   59A5 18 18 E6                   maxa    d,x
59A8 18 18 EE                   59A8 18 18 EE                   maxa    d,y
59AB 18 18 F2 12 34             59AB 18 18 F2 12 34             maxa    ext,sp
59B0 18 18 E2 12 34             59B0 18 18 E2 12 34             maxa    ext,x
59B5 18 18 EA 12 34             59B5 18 18 EA 12 34             maxa    ext,y
59BA 18 18 F8 37                59BA 18 18 F8 37                maxa    ind,pc
59BE 18 18 F0 37                59BE 18 18 F0 37                maxa    ind,sp
59C2 18 18 E0 37                59C2 18 18 E0 37                maxa    ind,x
59C6 18 18 E8 37                59C6 18 18 E8 37                maxa    ind,y
59CA 18 18 CE                   59CA 18 18 CE                   maxa    small,pc
59CD 18 18 8E                   59CD 18 18 8E                   maxa    small,sp
59D0 18 18 0E                   59D0 18 18 0E                   maxa    small,x
59D3 18 18 4E                   59D3 18 18 4E                   maxa    small,y
59D6 18 1C A0                   59D6 18 1C A0                   maxm    1,+sp
59D9 18 1C 20                   59D9 18 1C 20                   maxm    1,+x
59DC 18 1C 60                   59DC 18 1C 60                   maxm    1,+y
59DF 18 1C A7                   59DF 18 1C A7                   maxm    8,+sp
59E2 18 1C 27                   59E2 18 1C 27                   maxm    8,+x
59E5 18 1C 67                   59E5 18 1C 67                   maxm    8,+y
59E8 18 1C C0                   59E8 18 1C C0                   maxm    ,pc
59EB 18 1C 80                   59EB 18 1C 80                   maxm    ,sp
59EE 18 1C 00                   59EE 18 1C 00                   maxm    ,x
59F1 18 1C 40                   59F1 18 1C 40                   maxm    ,y
59F4 18 1C AF                   59F4 18 1C AF                   maxm    1,-sp
59F7 18 1C 2F                   59F7 18 1C 2F                   maxm    1,-x
59FA 18 1C 6F                   59FA 18 1C 6F                   maxm    1,-y
59FD 18 1C A8                   59FD 18 1C A8                   maxm    8,-sp
5A00 18 1C 28                   5A00 18 1C 28                   maxm    8,-x
5A03 18 1C 68                   5A03 18 1C 68                   maxm    8,-y
5A06 18 1C 9F                   5A06 18 1C 9F                   maxm    -1,sp
5A09 18 1C 1F                   5A09 18 1C 1F                   maxm    -1,x
5A0C 18 1C 5F                   5A0C 18 1C 5F                   maxm    -1,y
5A0F 18 1C 90                   5A0F 18 1C 90                   maxm    -16,sp
5A12 18 1C 10                   5A12 18 1C 10                   maxm    -16,x
5A15 18 1C 50                   5A15 18 1C 50                   maxm    -16,y
5A18 18 1C F1 EF                5A18 18 1C F1 EF                maxm    -17,sp
5A1C 18 1C E1 EF                5A1C 18 1C E1 EF                maxm    -17,x
5A20 18 1C E9 EF                5A20 18 1C E9 EF                maxm    -17,y
5A24 18 1C D2                   5A24 18 1C D2                   maxm    -small,pc
5A27 18 1C 92                   5A27 18 1C 92                   maxm    -small,sp
5A2A 18 1C 12                   5A2A 18 1C 12                   maxm    -small,x
5A2D 18 1C 52                   5A2D 18 1C 52                   maxm    -small,y
5A30 18 1C C0                   5A30 18 1C C0                   maxm    0,pc
5A33 18 1C 80                   5A33 18 1C 80                   maxm    0,sp
5A36 18 1C 00                   5A36 18 1C 00                   maxm    0,x
5A39 18 1C 40                   5A39 18 1C 40                   maxm    0,y
5A3C 18 1C B0                   5A3C 18 1C B0                   maxm    1,sp+
5A3F 18 1C 30                   5A3F 18 1C 30                   maxm    1,x+
5A42 18 1C 70                   5A42 18 1C 70                   maxm    1,y+
5A45 18 1C 81                   5A45 18 1C 81                   maxm    1,sp
5A48 18 1C 01                   5A48 18 1C 01                   maxm    1,x
5A4B 18 1C 41                   5A4B 18 1C 41                   maxm    1,y
5A4E 18 1C BF                   5A4E 18 1C BF                   maxm    1,sp-
5A51 18 1C 3F                   5A51 18 1C 3F                   maxm    1,x-
5A54 18 1C 7F                   5A54 18 1C 7F                   maxm    1,y-
5A57 18 1C F8 7D                5A57 18 1C F8 7D                maxm    125,pc
5A5B 18 1C F0 7D                5A5B 18 1C F0 7D                maxm    125,sp
5A5F 18 1C E0 7D                5A5F 18 1C E0 7D                maxm    125,x
5A63 18 1C E8 7D                5A63 18 1C E8 7D                maxm    125,y
5A67 18 1C 8F                   5A67 18 1C 8F                   maxm    15,sp
5A6A 18 1C 0F                   5A6A 18 1C 0F                   maxm    15,x
5A6D 18 1C 4F                   5A6D 18 1C 4F                   maxm    15,y
5A70 18 1C F0 10                5A70 18 1C F0 10                maxm    16,sp
5A74 18 1C E0 10                5A74 18 1C E0 10                maxm    16,x
5A78 18 1C E8 10                5A78 18 1C E8 10                maxm    16,y
5A7C 18 1C B7                   5A7C 18 1C B7                   maxm    8,sp+
5A7F 18 1C 37                   5A7F 18 1C 37                   maxm    8,x+
5A82 18 1C 77                   5A82 18 1C 77                   maxm    8,y+
5A85 18 1C B8                   5A85 18 1C B8                   maxm    8,sp-
5A88 18 1C 38                   5A88 18 1C 38                   maxm    8,x-
5A8B 18 1C 78                   5A8B 18 1C 78                   maxm    8,y-
5A8E 18 1C F4                   5A8E 18 1C F4                   maxm    a,sp
5A91 18 1C E4                   5A91 18 1C E4                   maxm    a,x
5A94 18 1C EC                   5A94 18 1C EC                   maxm    a,y
5A97 18 1C F5                   5A97 18 1C F5                   maxm    b,sp
5A9A 18 1C E5                   5A9A 18 1C E5                   maxm    b,x
5A9D 18 1C ED                   5A9D 18 1C ED                   maxm    b,y
5AA0 18 1C F6                   5AA0 18 1C F6                   maxm    d,sp
5AA3 18 1C E6                   5AA3 18 1C E6                   maxm    d,x
5AA6 18 1C EE                   5AA6 18 1C EE                   maxm    d,y
5AA9 18 1C F2 12 34             5AA9 18 1C F2 12 34             maxm    ext,sp
5AAE 18 1C E2 12 34             5AAE 18 1C E2 12 34             maxm    ext,x
5AB3 18 1C EA 12 34             5AB3 18 1C EA 12 34             maxm    ext,y
5AB8 18 1C F8 37                5AB8 18 1C F8 37                maxm    ind,pc
5ABC 18 1C F0 37                5ABC 18 1C F0 37                maxm    ind,sp
5AC0 18 1C E0 37                5AC0 18 1C E0 37                maxm    ind,x
5AC4 18 1C E8 37                5AC4 18 1C E8 37                maxm    ind,y
5AC8 18 1C CE                   5AC8 18 1C CE                   maxm    small,pc
5ACB 18 1C 8E                   5ACB 18 1C 8E                   maxm    small,sp
5ACE 18 1C 0E                   5ACE 18 1C 0E                   maxm    small,x
5AD1 18 1C 4E                   5AD1 18 1C 4E                   maxm    small,y
5AD4 01                         5AD4 01                         mem
5AD5 18 19 A0                   5AD5 18 19 A0                   mina    1,+sp
5AD8 18 19 20                   5AD8 18 19 20                   mina    1,+x
5ADB 18 19 60                   5ADB 18 19 60                   mina    1,+y
5ADE 18 19 A7                   5ADE 18 19 A7                   mina    8,+sp
5AE1 18 19 27                   5AE1 18 19 27                   mina    8,+x
5AE4 18 19 67                   5AE4 18 19 67                   mina    8,+y
5AE7 18 19 C0                   5AE7 18 19 C0                   mina    ,pc
5AEA 18 19 80                   5AEA 18 19 80                   mina    ,sp
5AED 18 19 00                   5AED 18 19 00                   mina    ,x
5AF0 18 19 40                   5AF0 18 19 40                   mina    ,y
5AF3 18 19 AF                   5AF3 18 19 AF                   mina    1,-sp
5AF6 18 19 2F                   5AF6 18 19 2F                   mina    1,-x
5AF9 18 19 6F                   5AF9 18 19 6F                   mina    1,-y
5AFC 18 19 A8                   5AFC 18 19 A8                   mina    8,-sp
5AFF 18 19 28                   5AFF 18 19 28                   mina    8,-x
5B02 18 19 68                   5B02 18 19 68                   mina    8,-y
5B05 18 19 9F                   5B05 18 19 9F                   mina    -1,sp
5B08 18 19 1F                   5B08 18 19 1F                   mina    -1,x
5B0B 18 19 5F                   5B0B 18 19 5F                   mina    -1,y
5B0E 18 19 90                   5B0E 18 19 90                   mina    -16,sp
5B11 18 19 10                   5B11 18 19 10                   mina    -16,x
5B14 18 19 50                   5B14 18 19 50                   mina    -16,y
5B17 18 19 F1 EF                5B17 18 19 F1 EF                mina    -17,sp
5B1B 18 19 E1 EF                5B1B 18 19 E1 EF                mina    -17,x
5B1F 18 19 E9 EF                5B1F 18 19 E9 EF                mina    -17,y
5B23 18 19 D2                   5B23 18 19 D2                   mina    -small,pc
5B26 18 19 92                   5B26 18 19 92                   mina    -small,sp
5B29 18 19 12                   5B29 18 19 12                   mina    -small,x
5B2C 18 19 52                   5B2C 18 19 52                   mina    -small,y
5B2F 18 19 C0                   5B2F 18 19 C0                   mina    0,pc
5B32 18 19 80                   5B32 18 19 80                   mina    0,sp
5B35 18 19 00                   5B35 18 19 00                   mina    0,x
5B38 18 19 40                   5B38 18 19 40                   mina    0,y
5B3B 18 19 B0                   5B3B 18 19 B0                   mina    1,sp+
5B3E 18 19 30                   5B3E 18 19 30                   mina    1,x+
5B41 18 19 70                   5B41 18 19 70                   mina    1,y+
5B44 18 19 81                   5B44 18 19 81                   mina    1,sp
5B47 18 19 01                   5B47 18 19 01                   mina    1,x
5B4A 18 19 41                   5B4A 18 19 41                   mina    1,y
5B4D 18 19 BF                   5B4D 18 19 BF                   mina    1,sp-
5B50 18 19 3F                   5B50 18 19 3F                   mina    1,x-
5B53 18 19 7F                   5B53 18 19 7F                   mina    1,y-
5B56 18 19 F8 7D                5B56 18 19 F8 7D                mina    125,pc
5B5A 18 19 F0 7D                5B5A 18 19 F0 7D                mina    125,sp
5B5E 18 19 E0 7D                5B5E 18 19 E0 7D                mina    125,x
5B62 18 19 E8 7D                5B62 18 19 E8 7D                mina    125,y
5B66 18 19 8F                   5B66 18 19 8F                   mina    15,sp
5B69 18 19 0F                   5B69 18 19 0F                   mina    15,x
5B6C 18 19 4F                   5B6C 18 19 4F                   mina    15,y
5B6F 18 19 F0 10                5B6F 18 19 F0 10                mina    16,sp
5B73 18 19 E0 10                5B73 18 19 E0 10                mina    16,x
5B77 18 19 E8 10                5B77 18 19 E8 10                mina    16,y
5B7B 18 19 B7                   5B7B 18 19 B7                   mina    8,sp+
5B7E 18 19 37                   5B7E 18 19 37                   mina    8,x+
5B81 18 19 77                   5B81 18 19 77                   mina    8,y+
5B84 18 19 B8                   5B84 18 19 B8                   mina    8,sp-
5B87 18 19 38                   5B87 18 19 38                   mina    8,x-
5B8A 18 19 78                   5B8A 18 19 78                   mina    8,y-
5B8D 18 19 F4                   5B8D 18 19 F4                   mina    a,sp
5B90 18 19 E4                   5B90 18 19 E4                   mina    a,x
5B93 18 19 EC                   5B93 18 19 EC                   mina    a,y
5B96 18 19 F5                   5B96 18 19 F5                   mina    b,sp
5B99 18 19 E5                   5B99 18 19 E5                   mina    b,x
5B9C 18 19 ED                   5B9C 18 19 ED                   mina    b,y
5B9F 18 19 F6                   5B9F 18 19 F6                   mina    d,sp
5BA2 18 19 E6                   5BA2 18 19 E6                   mina    d,x
5BA5 18 19 EE                   5BA5 18 19 EE                   mina    d,y
5BA8 18 19 F2 12 34             5BA8 18 19 F2 12 34             mina    ext,sp
5BAD 18 19 E2 12 34             5BAD 18 19 E2 12 34             mina    ext,x
5BB2 18 19 EA 12 34             5BB2 18 19 EA 12 34             mina    ext,y
5BB7 18 19 F8 37                5BB7 18 19 F8 37                mina    ind,pc
5BBB 18 19 F0 37                5BBB 18 19 F0 37                mina    ind,sp
5BBF 18 19 E0 37                5BBF 18 19 E0 37                mina    ind,x
5BC3 18 19 E8 37                5BC3 18 19 E8 37                mina    ind,y
5BC7 18 19 CE                   5BC7 18 19 CE                   mina    small,pc
5BCA 18 19 8E                   5BCA 18 19 8E                   mina    small,sp
5BCD 18 19 0E                   5BCD 18 19 0E                   mina    small,x
5BD0 18 19 4E                   5BD0 18 19 4E                   mina    small,y
5BD3 18 1D A0                   5BD3 18 1D A0                   minm    1,+sp
5BD6 18 1D 20                   5BD6 18 1D 20                   minm    1,+x
5BD9 18 1D 60                   5BD9 18 1D 60                   minm    1,+y
5BDC 18 1D A7                   5BDC 18 1D A7                   minm    8,+sp
5BDF 18 1D 27                   5BDF 18 1D 27                   minm    8,+x
5BE2 18 1D 67                   5BE2 18 1D 67                   minm    8,+y
5BE5 18 1D C0                   5BE5 18 1D C0                   minm    ,pc
5BE8 18 1D 80                   5BE8 18 1D 80                   minm    ,sp
5BEB 18 1D 00                   5BEB 18 1D 00                   minm    ,x
5BEE 18 1D 40                   5BEE 18 1D 40                   minm    ,y
5BF1 18 1D AF                   5BF1 18 1D AF                   minm    1,-sp
5BF4 18 1D 2F                   5BF4 18 1D 2F                   minm    1,-x
5BF7 18 1D 6F                   5BF7 18 1D 6F                   minm    1,-y
5BFA 18 1D A8                   5BFA 18 1D A8                   minm    8,-sp
5BFD 18 1D 28                   5BFD 18 1D 28                   minm    8,-x
5C00 18 1D 68                   5C00 18 1D 68                   minm    8,-y
5C03 18 1D 9F                   5C03 18 1D 9F                   minm    -1,sp
5C06 18 1D 1F                   5C06 18 1D 1F                   minm    -1,x
5C09 18 1D 5F                   5C09 18 1D 5F                   minm    -1,y
5C0C 18 1D 90                   5C0C 18 1D 90                   minm    -16,sp
5C0F 18 1D 10                   5C0F 18 1D 10                   minm    -16,x
5C12 18 1D 50                   5C12 18 1D 50                   minm    -16,y
5C15 18 1D F1 EF                5C15 18 1D F1 EF                minm    -17,sp
5C19 18 1D E1 EF                5C19 18 1D E1 EF                minm    -17,x
5C1D 18 1D E9 EF                5C1D 18 1D E9 EF                minm    -17,y
5C21 18 1D D2                   5C21 18 1D D2                   minm    -small,pc
5C24 18 1D 92                   5C24 18 1D 92                   minm    -small,sp
5C27 18 1D 12                   5C27 18 1D 12                   minm    -small,x
5C2A 18 1D 52                   5C2A 18 1D 52                   minm    -small,y
5C2D 18 1D C0                   5C2D 18 1D C0                   minm    0,pc
5C30 18 1D 80                   5C30 18 1D 80                   minm    0,sp
5C33 18 1D 00                   5C33 18 1D 00                   minm    0,x
5C36 18 1D 40                   5C36 18 1D 40                   minm    0,y
5C39 18 1D B0                   5C39 18 1D B0                   minm    1,sp+
5C3C 18 1D 30                   5C3C 18 1D 30                   minm    1,x+
5C3F 18 1D 70                   5C3F 18 1D 70                   minm    1,y+
5C42 18 1D 81                   5C42 18 1D 81                   minm    1,sp
5C45 18 1D 01                   5C45 18 1D 01                   minm    1,x
5C48 18 1D 41                   5C48 18 1D 41                   minm    1,y
5C4B 18 1D BF                   5C4B 18 1D BF                   minm    1,sp-
5C4E 18 1D 3F                   5C4E 18 1D 3F                   minm    1,x-
5C51 18 1D 7F                   5C51 18 1D 7F                   minm    1,y-
5C54 18 1D F8 7D                5C54 18 1D F8 7D                minm    125,pc
5C58 18 1D F0 7D                5C58 18 1D F0 7D                minm    125,sp
5C5C 18 1D E0 7D                5C5C 18 1D E0 7D                minm    125,x
5C60 18 1D E8 7D                5C60 18 1D E8 7D                minm    125,y
5C64 18 1D 8F                   5C64 18 1D 8F                   minm    15,sp
5C67 18 1D 0F                   5C67 18 1D 0F                   minm    15,x
5C6A 18 1D 4F                   5C6A 18 1D 4F                   minm    15,y
5C6D 18 1D F0 10                5C6D 18 1D F0 10                minm    16,sp
5C71 18 1D E0 10                5C71 18 1D E0 10                minm    16,x
5C75 18 1D E8 10                5C75 18 1D E8 10                minm    16,y
5C79 18 1D B7                   5C79 18 1D B7                   minm    8,sp+
5C7C 18 1D 37                   5C7C 18 1D 37                   minm    8,x+
5C7F 18 1D 77                   5C7F 18 1D 77                   minm    8,y+
5C82 18 1D B8                   5C82 18 1D B8                   minm    8,sp-
5C85 18 1D 38                   5C85 18 1D 38                   minm    8,x-
5C88 18 1D 78                   5C88 18 1D 78                   minm    8,y-
5C8B 18 1D F4                   5C8B 18 1D F4                   minm    a,sp
5C8E 18 1D E4                   5C8E 18 1D E4                   minm    a,x
5C91 18 1D EC                   5C91 18 1D EC                   minm    a,y
5C94 18 1D F5                   5C94 18 1D F5                   minm    b,sp
5C97 18 1D E5                   5C97 18 1D E5                   minm    b,x
5C9A 18 1D ED                   5C9A 18 1D ED                   minm    b,y
5C9D 18 1D F6                   5C9D 18 1D F6                   minm    d,sp
5CA0 18 1D E6                   5CA0 18 1D E6                   minm    d,x
5CA3 18 1D EE                   5CA3 18 1D EE                   minm    d,y
5CA6 18 1D F2 12 34             5CA6 18 1D F2 12 34             minm    ext,sp
5CAB 18 1D E2 12 34             5CAB 18 1D E2 12 34             minm    ext,x
5CB0 18 1D EA 12 34             5CB0 18 1D EA 12 34             minm    ext,y
5CB5 18 1D F8 37                5CB5 18 1D F8 37                minm    ind,pc
5CB9 18 1D F0 37                5CB9 18 1D F0 37                minm    ind,sp
5CBD 18 1D E0 37                5CBD 18 1D E0 37                minm    ind,x
5CC1 18 1D E8 37                5CC1 18 1D E8 37                minm    ind,y
5CC5 18 1D CE                   5CC5 18 1D CE                   minm    small,pc
5CC8 18 1D 8E                   5CC8 18 1D 8E                   minm    small,sp
5CCB 18 1D 0E                   5CCB 18 1D 0E                   minm    small,x
5CCE 18 1D 4E                   5CCE 18 1D 4E                   minm    small,y
5CD1 12                         5CD1 12                         mul
5CD2 60 A0                      5CD2 60 A0                      neg     1,+sp
5CD4 60 20                      5CD4 60 20                      neg     1,+x
5CD6 60 60                      5CD6 60 60                      neg     1,+y
5CD8 60 A7                      5CD8 60 A7                      neg     8,+sp
5CDA 60 27                      5CDA 60 27                      neg     8,+x
5CDC 60 67                      5CDC 60 67                      neg     8,+y
5CDE 60 C0                      5CDE 60 C0                      neg     ,pc
5CE0 60 80                      5CE0 60 80                      neg     ,sp
5CE2 60 00                      5CE2 60 00                      neg     ,x
5CE4 60 40                      5CE4 60 40                      neg     ,y
5CE6 60 AF                      5CE6 60 AF                      neg     1,-sp
5CE8 60 2F                      5CE8 60 2F                      neg     1,-x
5CEA 60 6F                      5CEA 60 6F                      neg     1,-y
5CEC 60 A8                      5CEC 60 A8                      neg     8,-sp
5CEE 60 28                      5CEE 60 28                      neg     8,-x
5CF0 60 68                      5CF0 60 68                      neg     8,-y
5CF2 60 9F                      5CF2 60 9F                      neg     -1,sp
5CF4 60 1F                      5CF4 60 1F                      neg     -1,x
5CF6 60 5F                      5CF6 60 5F                      neg     -1,y
5CF8 60 90                      5CF8 60 90                      neg     -16,sp
5CFA 60 10                      5CFA 60 10                      neg     -16,x
5CFC 60 50                      5CFC 60 50                      neg     -16,y
5CFE 60 F1 EF                   5CFE 60 F1 EF                   neg     -17,sp
5D01 60 E1 EF                   5D01 60 E1 EF                   neg     -17,x
5D04 60 E9 EF                   5D04 60 E9 EF                   neg     -17,y
5D07 60 D2                      5D07 60 D2                      neg     -small,pc
5D09 60 92                      5D09 60 92                      neg     -small,sp
5D0B 60 12                      5D0B 60 12                      neg     -small,x
5D0D 60 52                      5D0D 60 52                      neg     -small,y
5D0F 60 C0                      5D0F 60 C0                      neg     0,pc
5D11 60 80                      5D11 60 80                      neg     0,sp
5D13 60 00                      5D13 60 00                      neg     0,x
5D15 60 40                      5D15 60 40                      neg     0,y
5D17 60 B0                      5D17 60 B0                      neg     1,sp+
5D19 60 30                      5D19 60 30                      neg     1,x+
5D1B 60 70                      5D1B 60 70                      neg     1,y+
5D1D 60 81                      5D1D 60 81                      neg     1,sp
5D1F 60 01                      5D1F 60 01                      neg     1,x
5D21 60 41                      5D21 60 41                      neg     1,y
5D23 60 BF                      5D23 60 BF                      neg     1,sp-
5D25 60 3F                      5D25 60 3F                      neg     1,x-
5D27 60 7F                      5D27 60 7F                      neg     1,y-
5D29 60 F8 7D                   5D29 60 F8 7D                   neg     125,pc
5D2C 60 F0 7D                   5D2C 60 F0 7D                   neg     125,sp
5D2F 60 E0 7D                   5D2F 60 E0 7D                   neg     125,x
5D32 60 E8 7D                   5D32 60 E8 7D                   neg     125,y
5D35 60 8F                      5D35 60 8F                      neg     15,sp
5D37 60 0F                      5D37 60 0F                      neg     15,x
5D39 60 4F                      5D39 60 4F                      neg     15,y
5D3B 60 F0 10                   5D3B 60 F0 10                   neg     16,sp
5D3E 60 E0 10                   5D3E 60 E0 10                   neg     16,x
5D41 60 E8 10                   5D41 60 E8 10                   neg     16,y
5D44 60 B7                      5D44 60 B7                      neg     8,sp+
5D46 60 37                      5D46 60 37                      neg     8,x+
5D48 60 77                      5D48 60 77                      neg     8,y+
5D4A 60 B8                      5D4A 60 B8                      neg     8,sp-
5D4C 60 38                      5D4C 60 38                      neg     8,x-
5D4E 60 78                      5D4E 60 78                      neg     8,y-
5D50 60 F4                      5D50 60 F4                      neg     a,sp
5D52 60 E4                      5D52 60 E4                      neg     a,x
5D54 60 EC                      5D54 60 EC                      neg     a,y
5D56 60 F5                      5D56 60 F5                      neg     b,sp
5D58 60 E5                      5D58 60 E5                      neg     b,x
5D5A 60 ED                      5D5A 60 ED                      neg     b,y
5D5C 60 F6                      5D5C 60 F6                      neg     d,sp
5D5E 60 E6                      5D5E 60 E6                      neg     d,x
5D60 60 EE                      5D60 60 EE                      neg     d,y
5D62 70 00 55                   5D62 70 00 55                   neg     dir
5D65 70 12 34                   5D65 70 12 34                   neg     ext
5D68 70 12 34                   5D68 70 12 34                   neg     ext
5D6B 60 F2 12 34                5D6B 60 F2 12 34                neg     ext,sp
5D6F 60 E2 12 34                5D6F 60 E2 12 34                neg     ext,x
5D73 60 EA 12 34                5D73 60 EA 12 34                neg     ext,y
5D77 60 F8 37                   5D77 60 F8 37                   neg     ind,pc
5D7A 60 F0 37                   5D7A 60 F0 37                   neg     ind,sp
5D7D 60 E0 37                   5D7D 60 E0 37                   neg     ind,x
5D80 60 E8 37                   5D80 60 E8 37                   neg     ind,y
5D83 60 CE                      5D83 60 CE                      neg     small,pc
5D85 60 8E                      5D85 60 8E                      neg     small,sp
5D87 60 0E                      5D87 60 0E                      neg     small,x
5D89 60 4E                      5D89 60 4E                      neg     small,y
5D8B 40                         5D8B 40                         nega
5D8C 50                         5D8C 50                         negb
5D8D A7                         5D8D A7                         nop
5D8E 8A 72                      5D8E 8A 72                      oraa    #immed
5D90 8A 72                      5D90 8A 72                      oraa    #immed
5D92 AA A0                      5D92 AA A0                      oraa    1,+sp
5D94 AA 20                      5D94 AA 20                      oraa    1,+x
5D96 AA 60                      5D96 AA 60                      oraa    1,+y
5D98 AA A7                      5D98 AA A7                      oraa    8,+sp
5D9A AA 27                      5D9A AA 27                      oraa    8,+x
5D9C AA 67                      5D9C AA 67                      oraa    8,+y
5D9E AA C0                      5D9E AA C0                      oraa    ,pc
5DA0 AA 80                      5DA0 AA 80                      oraa    ,sp
5DA2 AA 00                      5DA2 AA 00                      oraa    ,x
5DA4 AA 40                      5DA4 AA 40                      oraa    ,y
5DA6 AA AF                      5DA6 AA AF                      oraa    1,-sp
5DA8 AA 2F                      5DA8 AA 2F                      oraa    1,-x
5DAA AA 6F                      5DAA AA 6F                      oraa    1,-y
5DAC AA A8                      5DAC AA A8                      oraa    8,-sp
5DAE AA 28                      5DAE AA 28                      oraa    8,-x
5DB0 AA 68                      5DB0 AA 68                      oraa    8,-y
5DB2 AA 9F                      5DB2 AA 9F                      oraa    -1,sp
5DB4 AA 1F                      5DB4 AA 1F                      oraa    -1,x
5DB6 AA 5F                      5DB6 AA 5F                      oraa    -1,y
5DB8 AA 90                      5DB8 AA 90                      oraa    -16,sp
5DBA AA 10                      5DBA AA 10                      oraa    -16,x
5DBC AA 50                      5DBC AA 50                      oraa    -16,y
5DBE AA F1 EF                   5DBE AA F1 EF                   oraa    -17,sp
5DC1 AA E1 EF                   5DC1 AA E1 EF                   oraa    -17,x
5DC4 AA E9 EF                   5DC4 AA E9 EF                   oraa    -17,y
5DC7 AA D2                      5DC7 AA D2                      oraa    -small,pc
5DC9 AA 92                      5DC9 AA 92                      oraa    -small,sp
5DCB AA 12                      5DCB AA 12                      oraa    -small,x
5DCD AA 52                      5DCD AA 52                      oraa    -small,y
5DCF AA C0                      5DCF AA C0                      oraa    0,pc
5DD1 AA 80                      5DD1 AA 80                      oraa    0,sp
5DD3 AA 00                      5DD3 AA 00                      oraa    0,x
5DD5 AA 40                      5DD5 AA 40                      oraa    0,y
5DD7 AA B0                      5DD7 AA B0                      oraa    1,sp+
5DD9 AA 30                      5DD9 AA 30                      oraa    1,x+
5DDB AA 70                      5DDB AA 70                      oraa    1,y+
5DDD AA 81                      5DDD AA 81                      oraa    1,sp
5DDF AA 01                      5DDF AA 01                      oraa    1,x
5DE1 AA 41                      5DE1 AA 41                      oraa    1,y
5DE3 AA BF                      5DE3 AA BF                      oraa    1,sp-
5DE5 AA 3F                      5DE5 AA 3F                      oraa    1,x-
5DE7 AA 7F                      5DE7 AA 7F                      oraa    1,y-
5DE9 AA F8 7D                   5DE9 AA F8 7D                   oraa    125,pc
5DEC AA F0 7D                   5DEC AA F0 7D                   oraa    125,sp
5DEF AA E0 7D                   5DEF AA E0 7D                   oraa    125,x
5DF2 AA E8 7D                   5DF2 AA E8 7D                   oraa    125,y
5DF5 AA 8F                      5DF5 AA 8F                      oraa    15,sp
5DF7 AA 0F                      5DF7 AA 0F                      oraa    15,x
5DF9 AA 4F                      5DF9 AA 4F                      oraa    15,y
5DFB AA F0 10                   5DFB AA F0 10                   oraa    16,sp
5DFE AA E0 10                   5DFE AA E0 10                   oraa    16,x
5E01 AA E8 10                   5E01 AA E8 10                   oraa    16,y
5E04 AA B7                      5E04 AA B7                      oraa    8,sp+
5E06 AA 37                      5E06 AA 37                      oraa    8,x+
5E08 AA 77                      5E08 AA 77                      oraa    8,y+
5E0A AA B8                      5E0A AA B8                      oraa    8,sp-
5E0C AA 38                      5E0C AA 38                      oraa    8,x-
5E0E AA 78                      5E0E AA 78                      oraa    8,y-
5E10 AA F4                      5E10 AA F4                      oraa    a,sp
5E12 AA E4                      5E12 AA E4                      oraa    a,x
5E14 AA EC                      5E14 AA EC                      oraa    a,y
5E16 AA F5                      5E16 AA F5                      oraa    b,sp
5E18 AA E5                      5E18 AA E5                      oraa    b,x
5E1A AA ED                      5E1A AA ED                      oraa    b,y
5E1C AA F6                      5E1C AA F6                      oraa    d,sp
5E1E AA E6                      5E1E AA E6                      oraa    d,x
5E20 AA EE                      5E20 AA EE                      oraa    d,y
5E22 9A 55                      5E22 9A 55                      oraa    dir
5E24 9A 55                      5E24 9A 55                      oraa    dir
5E26 BA 12 34                   5E26 BA 12 34                   oraa    ext
5E29 BA 12 34                   5E29 BA 12 34                   oraa    ext
5E2C AA F2 12 34                5E2C AA F2 12 34                oraa    ext,sp
5E30 AA E2 12 34                5E30 AA E2 12 34                oraa    ext,x
5E34 AA EA 12 34                5E34 AA EA 12 34                oraa    ext,y
5E38 AA F8 37                   5E38 AA F8 37                   oraa    ind,pc
5E3B AA F0 37                   5E3B AA F0 37                   oraa    ind,sp
5E3E AA E0 37                   5E3E AA E0 37                   oraa    ind,x
5E41 AA E8 37                   5E41 AA E8 37                   oraa    ind,y
5E44 AA CE                      5E44 AA CE                      oraa    small,pc
5E46 AA 8E                      5E46 AA 8E                      oraa    small,sp
5E48 AA 0E                      5E48 AA 0E                      oraa    small,x
5E4A AA 4E                      5E4A AA 4E                      oraa    small,y
5E4C CA 72                      5E4C CA 72                      orab    #immed
5E4E CA 72                      5E4E CA 72                      orab    #immed
5E50 EA A0                      5E50 EA A0                      orab    1,+sp
5E52 EA 20                      5E52 EA 20                      orab    1,+x
5E54 EA 60                      5E54 EA 60                      orab    1,+y
5E56 EA A7                      5E56 EA A7                      orab    8,+sp
5E58 EA 27                      5E58 EA 27                      orab    8,+x
5E5A EA 67                      5E5A EA 67                      orab    8,+y
5E5C EA C0                      5E5C EA C0                      orab    ,pc
5E5E EA 80                      5E5E EA 80                      orab    ,sp
5E60 EA 00                      5E60 EA 00                      orab    ,x
5E62 EA 40                      5E62 EA 40                      orab    ,y
5E64 EA AF                      5E64 EA AF                      orab    1,-sp
5E66 EA 2F                      5E66 EA 2F                      orab    1,-x
5E68 EA 6F                      5E68 EA 6F                      orab    1,-y
5E6A EA A8                      5E6A EA A8                      orab    8,-sp
5E6C EA 28                      5E6C EA 28                      orab    8,-x
5E6E EA 68                      5E6E EA 68                      orab    8,-y
5E70 EA 9F                      5E70 EA 9F                      orab    -1,sp
5E72 EA 1F                      5E72 EA 1F                      orab    -1,x
5E74 EA 5F                      5E74 EA 5F                      orab    -1,y
5E76 EA 90                      5E76 EA 90                      orab    -16,sp
5E78 EA 10                      5E78 EA 10                      orab    -16,x
5E7A EA 50                      5E7A EA 50                      orab    -16,y
5E7C EA F1 EF                   5E7C EA F1 EF                   orab    -17,sp
5E7F EA E1 EF                   5E7F EA E1 EF                   orab    -17,x
5E82 EA E9 EF                   5E82 EA E9 EF                   orab    -17,y
5E85 EA D2                      5E85 EA D2                      orab    -small,pc
5E87 EA 92                      5E87 EA 92                      orab    -small,sp
5E89 EA 12                      5E89 EA 12                      orab    -small,x
5E8B EA 52                      5E8B EA 52                      orab    -small,y
5E8D EA C0                      5E8D EA C0                      orab    0,pc
5E8F EA 80                      5E8F EA 80                      orab    0,sp
5E91 EA 00                      5E91 EA 00                      orab    0,x
5E93 EA 40                      5E93 EA 40                      orab    0,y
5E95 EA B0                      5E95 EA B0                      orab    1,sp+
5E97 EA 30                      5E97 EA 30                      orab    1,x+
5E99 EA 70                      5E99 EA 70                      orab    1,y+
5E9B EA 81                      5E9B EA 81                      orab    1,sp
5E9D EA 01                      5E9D EA 01                      orab    1,x
5E9F EA 41                      5E9F EA 41                      orab    1,y
5EA1 EA BF                      5EA1 EA BF                      orab    1,sp-
5EA3 EA 3F                      5EA3 EA 3F                      orab    1,x-
5EA5 EA 7F                      5EA5 EA 7F                      orab    1,y-
5EA7 EA F8 7D                   5EA7 EA F8 7D                   orab    125,pc
5EAA EA F0 7D                   5EAA EA F0 7D                   orab    125,sp
5EAD EA E0 7D                   5EAD EA E0 7D                   orab    125,x
5EB0 EA E8 7D                   5EB0 EA E8 7D                   orab    125,y
5EB3 EA 8F                      5EB3 EA 8F                      orab    15,sp
5EB5 EA 0F                      5EB5 EA 0F                      orab    15,x
5EB7 EA 4F                      5EB7 EA 4F                      orab    15,y
5EB9 EA F0 10                   5EB9 EA F0 10                   orab    16,sp
5EBC EA E0 10                   5EBC EA E0 10                   orab    16,x
5EBF EA E8 10                   5EBF EA E8 10                   orab    16,y
5EC2 EA B7                      5EC2 EA B7                      orab    8,sp+
5EC4 EA 37                      5EC4 EA 37                      orab    8,x+
5EC6 EA 77                      5EC6 EA 77                      orab    8,y+
5EC8 EA B8                      5EC8 EA B8                      orab    8,sp-
5ECA EA 38                      5ECA EA 38                      orab    8,x-
5ECC EA 78                      5ECC EA 78                      orab    8,y-
5ECE EA F4                      5ECE EA F4                      orab    a,sp
5ED0 EA E4                      5ED0 EA E4                      orab    a,x
5ED2 EA EC                      5ED2 EA EC                      orab    a,y
5ED4 EA F5                      5ED4 EA F5                      orab    b,sp
5ED6 EA E5                      5ED6 EA E5                      orab    b,x
5ED8 EA ED                      5ED8 EA ED                      orab    b,y
5EDA EA F6                      5EDA EA F6                      orab    d,sp
5EDC EA E6                      5EDC EA E6                      orab    d,x
5EDE EA EE                      5EDE EA EE                      orab    d,y
5EE0 DA 55                      5EE0 DA 55                      orab    dir
5EE2 DA 55                      5EE2 DA 55                      orab    dir
5EE4 FA 12 34                   5EE4 FA 12 34                   orab    ext
5EE7 FA 12 34                   5EE7 FA 12 34                   orab    ext
5EEA EA F2 12 34                5EEA EA F2 12 34                orab    ext,sp
5EEE EA E2 12 34                5EEE EA E2 12 34                orab    ext,x
5EF2 EA EA 12 34                5EF2 EA EA 12 34                orab    ext,y
5EF6 EA F8 37                   5EF6 EA F8 37                   orab    ind,pc
5EF9 EA F0 37                   5EF9 EA F0 37                   orab    ind,sp
5EFC EA E0 37                   5EFC EA E0 37                   orab    ind,x
5EFF EA E8 37                   5EFF EA E8 37                   orab    ind,y
5F02 EA CE                      5F02 EA CE                      orab    small,pc
5F04 EA 8E                      5F04 EA 8E                      orab    small,sp
5F06 EA 0E                      5F06 EA 0E                      orab    small,x
5F08 EA 4E                      5F08 EA 4E                      orab    small,y
5F0A 14 72                      5F0A 14 72                      orcc    #immed
5F0C 36                         5F0C 36                         psha
5F0D 37                         5F0D 37                         pshb
5F0E 3B                         5F0E 3B                         pshd
5F0F 34                         5F0F 34                         pshx
5F10 35                         5F10 35                         pshy
5F11 32                         5F11 32                         pula
5F12 33                         5F12 33                         pulb
5F13 38                         5F13 38                         pulc
5F14 3A                         5F14 3A                         puld
5F15 30                         5F15 30                         pulx
5F16 31                         5F16 31                         puly
5F17 18 3A                      5F17 18 3A                      rev
5F19 65 A0                      5F19 65 A0                      rol     1,+sp
5F1B 65 20                      5F1B 65 20                      rol     1,+x
5F1D 65 60                      5F1D 65 60                      rol     1,+y
5F1F 65 A7                      5F1F 65 A7                      rol     8,+sp
5F21 65 27                      5F21 65 27                      rol     8,+x
5F23 65 67                      5F23 65 67                      rol     8,+y
5F25 65 C0                      5F25 65 C0                      rol     ,pc
5F27 65 80                      5F27 65 80                      rol     ,sp
5F29 65 00                      5F29 65 00                      rol     ,x
5F2B 65 40                      5F2B 65 40                      rol     ,y
5F2D 65 AF                      5F2D 65 AF                      rol     1,-sp
5F2F 65 2F                      5F2F 65 2F                      rol     1,-x
5F31 65 6F                      5F31 65 6F                      rol     1,-y
5F33 65 A8                      5F33 65 A8                      rol     8,-sp
5F35 65 28                      5F35 65 28                      rol     8,-x
5F37 65 68                      5F37 65 68                      rol     8,-y
5F39 65 9F                      5F39 65 9F                      rol     -1,sp
5F3B 65 1F                      5F3B 65 1F                      rol     -1,x
5F3D 65 5F                      5F3D 65 5F                      rol     -1,y
5F3F 65 90                      5F3F 65 90                      rol     -16,sp
5F41 65 10                      5F41 65 10                      rol     -16,x
5F43 65 50                      5F43 65 50                      rol     -16,y
5F45 65 F1 EF                   5F45 65 F1 EF                   rol     -17,sp
5F48 65 E1 EF                   5F48 65 E1 EF                   rol     -17,x
5F4B 65 E9 EF                   5F4B 65 E9 EF                   rol     -17,y
5F4E 65 D2                      5F4E 65 D2                      rol     -small,pc
5F50 65 92                      5F50 65 92                      rol     -small,sp
5F52 65 12                      5F52 65 12                      rol     -small,x
5F54 65 52                      5F54 65 52                      rol     -small,y
5F56 65 C0                      5F56 65 C0                      rol     0,pc
5F58 65 80                      5F58 65 80                      rol     0,sp
5F5A 65 00                      5F5A 65 00                      rol     0,x
5F5C 65 40                      5F5C 65 40                      rol     0,y
5F5E 65 B0                      5F5E 65 B0                      rol     1,sp+
5F60 65 30                      5F60 65 30                      rol     1,x+
5F62 65 70                      5F62 65 70                      rol     1,y+
5F64 65 81                      5F64 65 81                      rol     1,sp
5F66 65 01                      5F66 65 01                      rol     1,x
5F68 65 41                      5F68 65 41                      rol     1,y
5F6A 65 BF                      5F6A 65 BF                      rol     1,sp-
5F6C 65 3F                      5F6C 65 3F                      rol     1,x-
5F6E 65 7F                      5F6E 65 7F                      rol     1,y-
5F70 65 F8 7D                   5F70 65 F8 7D                   rol     125,pc
5F73 65 F0 7D                   5F73 65 F0 7D                   rol     125,sp
5F76 65 E0 7D                   5F76 65 E0 7D                   rol     125,x
5F79 65 E8 7D                   5F79 65 E8 7D                   rol     125,y
5F7C 65 8F                      5F7C 65 8F                      rol     15,sp
5F7E 65 0F                      5F7E 65 0F                      rol     15,x
5F80 65 4F                      5F80 65 4F                      rol     15,y
5F82 65 F0 10                   5F82 65 F0 10                   rol     16,sp
5F85 65 E0 10                   5F85 65 E0 10                   rol     16,x
5F88 65 E8 10                   5F88 65 E8 10                   rol     16,y
5F8B 65 B7                      5F8B 65 B7                      rol     8,sp+
5F8D 65 37                      5F8D 65 37                      rol     8,x+
5F8F 65 77                      5F8F 65 77                      rol     8,y+
5F91 65 B8                      5F91 65 B8                      rol     8,sp-
5F93 65 38                      5F93 65 38                      rol     8,x-
5F95 65 78                      5F95 65 78                      rol     8,y-
5F97 65 F4                      5F97 65 F4                      rol     a,sp
5F99 65 E4                      5F99 65 E4                      rol     a,x
5F9B 65 EC                      5F9B 65 EC                      rol     a,y
5F9D 65 F5                      5F9D 65 F5                      rol     b,sp
5F9F 65 E5                      5F9F 65 E5                      rol     b,x
5FA1 65 ED                      5FA1 65 ED                      rol     b,y
5FA3 65 F6                      5FA3 65 F6                      rol     d,sp
5FA5 65 E6                      5FA5 65 E6                      rol     d,x
5FA7 65 EE                      5FA7 65 EE                      rol     d,y
5FA9 75 00 55                   5FA9 75 00 55                   rol     dir
5FAC 75 12 34                   5FAC 75 12 34                   rol     ext
5FAF 75 12 34                   5FAF 75 12 34                   rol     ext
5FB2 65 F2 12 34                5FB2 65 F2 12 34                rol     ext,sp
5FB6 65 E2 12 34                5FB6 65 E2 12 34                rol     ext,x
5FBA 65 EA 12 34                5FBA 65 EA 12 34                rol     ext,y
5FBE 65 F8 37                   5FBE 65 F8 37                   rol     ind,pc
5FC1 65 F0 37                   5FC1 65 F0 37                   rol     ind,sp
5FC4 65 E0 37                   5FC4 65 E0 37                   rol     ind,x
5FC7 65 E8 37                   5FC7 65 E8 37                   rol     ind,y
5FCA 65 CE                      5FCA 65 CE                      rol     small,pc
5FCC 65 8E                      5FCC 65 8E                      rol     small,sp
5FCE 65 0E                      5FCE 65 0E                      rol     small,x
5FD0 65 4E                      5FD0 65 4E                      rol     small,y
5FD2 45                         5FD2 45                         rola
5FD3 55                         5FD3 55                         rolb
5FD4 66 A0                      5FD4 66 A0                      ror     1,+sp
5FD6 66 20                      5FD6 66 20                      ror     1,+x
5FD8 66 60                      5FD8 66 60                      ror     1,+y
5FDA 66 A7                      5FDA 66 A7                      ror     8,+sp
5FDC 66 27                      5FDC 66 27                      ror     8,+x
5FDE 66 67                      5FDE 66 67                      ror     8,+y
5FE0 66 C0                      5FE0 66 C0                      ror     ,pc
5FE2 66 80                      5FE2 66 80                      ror     ,sp
5FE4 66 00                      5FE4 66 00                      ror     ,x
5FE6 66 40                      5FE6 66 40                      ror     ,y
5FE8 66 AF                      5FE8 66 AF                      ror     1,-sp
5FEA 66 2F                      5FEA 66 2F                      ror     1,-x
5FEC 66 6F                      5FEC 66 6F                      ror     1,-y
5FEE 66 A8                      5FEE 66 A8                      ror     8,-sp
5FF0 66 28                      5FF0 66 28                      ror     8,-x
5FF2 66 68                      5FF2 66 68                      ror     8,-y
5FF4 66 9F                      5FF4 66 9F                      ror     -1,sp
5FF6 66 1F                      5FF6 66 1F                      ror     -1,x
5FF8 66 5F                      5FF8 66 5F                      ror     -1,y
5FFA 66 90                      5FFA 66 90                      ror     -16,sp
5FFC 66 10                      5FFC 66 10                      ror     -16,x
5FFE 66 50                      5FFE 66 50                      ror     -16,y
6000 66 F1 EF                   6000 66 F1 EF                   ror     -17,sp
6003 66 E1 EF                   6003 66 E1 EF                   ror     -17,x
6006 66 E9 EF                   6006 66 E9 EF                   ror     -17,y
6009 66 D2                      6009 66 D2                      ror     -small,pc
600B 66 92                      600B 66 92                      ror     -small,sp
600D 66 12                      600D 66 12                      ror     -small,x
600F 66 52                      600F 66 52                      ror     -small,y
6011 66 C0                      6011 66 C0                      ror     0,pc
6013 66 80                      6013 66 80                      ror     0,sp
6015 66 00                      6015 66 00                      ror     0,x
6017 66 40                      6017 66 40                      ror     0,y
6019 66 B0                      6019 66 B0                      ror     1,sp+
601B 66 30                      601B 66 30                      ror     1,x+
601D 66 70                      601D 66 70                      ror     1,y+
601F 66 81                      601F 66 81                      ror     1,sp
6021 66 01                      6021 66 01                      ror     1,x
6023 66 41                      6023 66 41                      ror     1,y
6025 66 BF                      6025 66 BF                      ror     1,sp-
6027 66 3F                      6027 66 3F                      ror     1,x-
6029 66 7F                      6029 66 7F                      ror     1,y-
602B 66 F8 7D                   602B 66 F8 7D                   ror     125,pc
602E 66 F0 7D                   602E 66 F0 7D                   ror     125,sp
6031 66 E0 7D                   6031 66 E0 7D                   ror     125,x
6034 66 E8 7D                   6034 66 E8 7D                   ror     125,y
6037 66 8F                      6037 66 8F                      ror     15,sp
6039 66 0F                      6039 66 0F                      ror     15,x
603B 66 4F                      603B 66 4F                      ror     15,y
603D 66 F0 10                   603D 66 F0 10                   ror     16,sp
6040 66 E0 10                   6040 66 E0 10                   ror     16,x
6043 66 E8 10                   6043 66 E8 10                   ror     16,y
6046 66 B7                      6046 66 B7                      ror     8,sp+
6048 66 37                      6048 66 37                      ror     8,x+
604A 66 77                      604A 66 77                      ror     8,y+
604C 66 B8                      604C 66 B8                      ror     8,sp-
604E 66 38                      604E 66 38                      ror     8,x-
6050 66 78                      6050 66 78                      ror     8,y-
6052 66 F4                      6052 66 F4                      ror     a,sp
6054 66 E4                      6054 66 E4                      ror     a,x
6056 66 EC                      6056 66 EC                      ror     a,y
6058 66 F5                      6058 66 F5                      ror     b,sp
605A 66 E5                      605A 66 E5                      ror     b,x
605C 66 ED                      605C 66 ED                      ror     b,y
605E 66 F6                      605E 66 F6                      ror     d,sp
6060 66 E6                      6060 66 E6                      ror     d,x
6062 66 EE                      6062 66 EE                      ror     d,y
6064 76 00 55                   6064 76 00 55                   ror     dir
6067 76 12 34                   6067 76 12 34                   ror     ext
606A 76 12 34                   606A 76 12 34                   ror     ext
606D 66 F2 12 34                606D 66 F2 12 34                ror     ext,sp
6071 66 E2 12 34                6071 66 E2 12 34                ror     ext,x
6075 66 EA 12 34                6075 66 EA 12 34                ror     ext,y
6079 66 F8 37                   6079 66 F8 37                   ror     ind,pc
607C 66 F0 37                   607C 66 F0 37                   ror     ind,sp
607F 66 E0 37                   607F 66 E0 37                   ror     ind,x
6082 66 E8 37                   6082 66 E8 37                   ror     ind,y
6085 66 CE                      6085 66 CE                      ror     small,pc
6087 66 8E                      6087 66 8E                      ror     small,sp
6089 66 0E                      6089 66 0E                      ror     small,x
608B 66 4E                      608B 66 4E                      ror     small,y
608D 46                         608D 46                         rora
608E 56                         608E 56                         rorb
608F 0B                         608F 0B                         rti
6090 3D                         6090 3D                         rts
6091 18 16                      6091 18 16                      sba
6093 82 72                      6093 82 72                      sbca    #immed
6095 82 72                      6095 82 72                      sbca    #immed
6097 A2 A0                      6097 A2 A0                      sbca    1,+sp
6099 A2 20                      6099 A2 20                      sbca    1,+x
609B A2 60                      609B A2 60                      sbca    1,+y
609D A2 A7                      609D A2 A7                      sbca    8,+sp
609F A2 27                      609F A2 27                      sbca    8,+x
60A1 A2 67                      60A1 A2 67                      sbca    8,+y
60A3 A2 C0                      60A3 A2 C0                      sbca    ,pc
60A5 A2 80                      60A5 A2 80                      sbca    ,sp
60A7 A2 00                      60A7 A2 00                      sbca    ,x
60A9 A2 40                      60A9 A2 40                      sbca    ,y
60AB A2 AF                      60AB A2 AF                      sbca    1,-sp
60AD A2 2F                      60AD A2 2F                      sbca    1,-x
60AF A2 6F                      60AF A2 6F                      sbca    1,-y
60B1 A2 A8                      60B1 A2 A8                      sbca    8,-sp
60B3 A2 28                      60B3 A2 28                      sbca    8,-x
60B5 A2 68                      60B5 A2 68                      sbca    8,-y
60B7 A2 9F                      60B7 A2 9F                      sbca    -1,sp
60B9 A2 1F                      60B9 A2 1F                      sbca    -1,x
60BB A2 5F                      60BB A2 5F                      sbca    -1,y
60BD A2 90                      60BD A2 90                      sbca    -16,sp
60BF A2 10                      60BF A2 10                      sbca    -16,x
60C1 A2 50                      60C1 A2 50                      sbca    -16,y
60C3 A2 F1 EF                   60C3 A2 F1 EF                   sbca    -17,sp
60C6 A2 E1 EF                   60C6 A2 E1 EF                   sbca    -17,x
60C9 A2 E9 EF                   60C9 A2 E9 EF                   sbca    -17,y
60CC A2 D2                      60CC A2 D2                      sbca    -small,pc
60CE A2 92                      60CE A2 92                      sbca    -small,sp
60D0 A2 12                      60D0 A2 12                      sbca    -small,x
60D2 A2 52                      60D2 A2 52                      sbca    -small,y
60D4 A2 C0                      60D4 A2 C0                      sbca    0,pc
60D6 A2 80                      60D6 A2 80                      sbca    0,sp
60D8 A2 00                      60D8 A2 00                      sbca    0,x
60DA A2 40                      60DA A2 40                      sbca    0,y
60DC A2 B0                      60DC A2 B0                      sbca    1,sp+
60DE A2 30                      60DE A2 30                      sbca    1,x+
60E0 A2 70                      60E0 A2 70                      sbca    1,y+
60E2 A2 81                      60E2 A2 81                      sbca    1,sp
60E4 A2 01                      60E4 A2 01                      sbca    1,x
60E6 A2 41                      60E6 A2 41                      sbca    1,y
60E8 A2 BF                      60E8 A2 BF                      sbca    1,sp-
60EA A2 3F                      60EA A2 3F                      sbca    1,x-
60EC A2 7F                      60EC A2 7F                      sbca    1,y-
60EE A2 F8 7D                   60EE A2 F8 7D                   sbca    125,pc
60F1 A2 F0 7D                   60F1 A2 F0 7D                   sbca    125,sp
60F4 A2 E0 7D                   60F4 A2 E0 7D                   sbca    125,x
60F7 A2 E8 7D                   60F7 A2 E8 7D                   sbca    125,y
60FA A2 8F                      60FA A2 8F                      sbca    15,sp
60FC A2 0F                      60FC A2 0F                      sbca    15,x
60FE A2 4F                      60FE A2 4F                      sbca    15,y
6100 A2 F0 10                   6100 A2 F0 10                   sbca    16,sp
6103 A2 E0 10                   6103 A2 E0 10                   sbca    16,x
6106 A2 E8 10                   6106 A2 E8 10                   sbca    16,y
6109 A2 B7                      6109 A2 B7                      sbca    8,sp+
610B A2 37                      610B A2 37                      sbca    8,x+
610D A2 77                      610D A2 77                      sbca    8,y+
610F A2 B8                      610F A2 B8                      sbca    8,sp-
6111 A2 38                      6111 A2 38                      sbca    8,x-
6113 A2 78                      6113 A2 78                      sbca    8,y-
6115 A2 F4                      6115 A2 F4                      sbca    a,sp
6117 A2 E4                      6117 A2 E4                      sbca    a,x
6119 A2 EC                      6119 A2 EC                      sbca    a,y
611B A2 F5                      611B A2 F5                      sbca    b,sp
611D A2 E5                      611D A2 E5                      sbca    b,x
611F A2 ED                      611F A2 ED                      sbca    b,y
6121 A2 F6                      6121 A2 F6                      sbca    d,sp
6123 A2 E6                      6123 A2 E6                      sbca    d,x
6125 A2 EE                      6125 A2 EE                      sbca    d,y
6127 92 55                      6127 92 55                      sbca    dir
6129 92 55                      6129 92 55                      sbca    dir
612B B2 12 34                   612B B2 12 34                   sbca    ext
612E B2 12 34                   612E B2 12 34                   sbca    ext
6131 A2 F2 12 34                6131 A2 F2 12 34                sbca    ext,sp
6135 A2 E2 12 34                6135 A2 E2 12 34                sbca    ext,x
6139 A2 EA 12 34                6139 A2 EA 12 34                sbca    ext,y
613D A2 F8 37                   613D A2 F8 37                   sbca    ind,pc
6140 A2 F0 37                   6140 A2 F0 37                   sbca    ind,sp
6143 A2 E0 37                   6143 A2 E0 37                   sbca    ind,x
6146 A2 E8 37                   6146 A2 E8 37                   sbca    ind,y
6149 A2 CE                      6149 A2 CE                      sbca    small,pc
614B A2 8E                      614B A2 8E                      sbca    small,sp
614D A2 0E                      614D A2 0E                      sbca    small,x
614F A2 4E                      614F A2 4E                      sbca    small,y
6151 C2 72                      6151 C2 72                      sbcb    #immed
6153 C2 72                      6153 C2 72                      sbcb    #immed
6155 E2 A0                      6155 E2 A0                      sbcb    1,+sp
6157 E2 20                      6157 E2 20                      sbcb    1,+x
6159 E2 60                      6159 E2 60                      sbcb    1,+y
615B E2 A7                      615B E2 A7                      sbcb    8,+sp
615D E2 27                      615D E2 27                      sbcb    8,+x
615F E2 67                      615F E2 67                      sbcb    8,+y
6161 E2 C0                      6161 E2 C0                      sbcb    ,pc
6163 E2 80                      6163 E2 80                      sbcb    ,sp
6165 E2 00                      6165 E2 00                      sbcb    ,x
6167 E2 40                      6167 E2 40                      sbcb    ,y
6169 E2 AF                      6169 E2 AF                      sbcb    1,-sp
616B E2 2F                      616B E2 2F                      sbcb    1,-x
616D E2 6F                      616D E2 6F                      sbcb    1,-y
616F E2 A8                      616F E2 A8                      sbcb    8,-sp
6171 E2 28                      6171 E2 28                      sbcb    8,-x
6173 E2 68                      6173 E2 68                      sbcb    8,-y
6175 E2 9F                      6175 E2 9F                      sbcb    -1,sp
6177 E2 1F                      6177 E2 1F                      sbcb    -1,x
6179 E2 5F                      6179 E2 5F                      sbcb    -1,y
617B E2 90                      617B E2 90                      sbcb    -16,sp
617D E2 10                      617D E2 10                      sbcb    -16,x
617F E2 50                      617F E2 50                      sbcb    -16,y
6181 E2 F1 EF                   6181 E2 F1 EF                   sbcb    -17,sp
6184 E2 E1 EF                   6184 E2 E1 EF                   sbcb    -17,x
6187 E2 E9 EF                   6187 E2 E9 EF                   sbcb    -17,y
618A E2 D2                      618A E2 D2                      sbcb    -small,pc
618C E2 92                      618C E2 92                      sbcb    -small,sp
618E E2 12                      618E E2 12                      sbcb    -small,x
6190 E2 52                      6190 E2 52                      sbcb    -small,y
6192 E2 C0                      6192 E2 C0                      sbcb    0,pc
6194 E2 80                      6194 E2 80                      sbcb    0,sp
6196 E2 00                      6196 E2 00                      sbcb    0,x
6198 E2 40                      6198 E2 40                      sbcb    0,y
619A E2 B0                      619A E2 B0                      sbcb    1,sp+
619C E2 30                      619C E2 30                      sbcb    1,x+
619E E2 70                      619E E2 70                      sbcb    1,y+
61A0 E2 81                      61A0 E2 81                      sbcb    1,sp
61A2 E2 01                      61A2 E2 01                      sbcb    1,x
61A4 E2 41                      61A4 E2 41                      sbcb    1,y
61A6 E2 BF                      61A6 E2 BF                      sbcb    1,sp-
61A8 E2 3F                      61A8 E2 3F                      sbcb    1,x-
61AA E2 7F                      61AA E2 7F                      sbcb    1,y-
61AC E2 F8 7D                   61AC E2 F8 7D                   sbcb    125,pc
61AF E2 F0 7D                   61AF E2 F0 7D                   sbcb    125,sp
61B2 E2 E0 7D                   61B2 E2 E0 7D                   sbcb    125,x
61B5 E2 E8 7D                   61B5 E2 E8 7D                   sbcb    125,y
61B8 E2 8F                      61B8 E2 8F                      sbcb    15,sp
61BA E2 0F                      61BA E2 0F                      sbcb    15,x
61BC E2 4F                      61BC E2 4F                      sbcb    15,y
61BE E2 F0 10                   61BE E2 F0 10                   sbcb    16,sp
61C1 E2 E0 10                   61C1 E2 E0 10                   sbcb    16,x
61C4 E2 E8 10                   61C4 E2 E8 10                   sbcb    16,y
61C7 E2 B7                      61C7 E2 B7                      sbcb    8,sp+
61C9 E2 37                      61C9 E2 37                      sbcb    8,x+
61CB E2 77                      61CB E2 77                      sbcb    8,y+
61CD E2 B8                      61CD E2 B8                      sbcb    8,sp-
61CF E2 38                      61CF E2 38                      sbcb    8,x-
61D1 E2 78                      61D1 E2 78                      sbcb    8,y-
61D3 E2 F4                      61D3 E2 F4                      sbcb    a,sp
61D5 E2 E4                      61D5 E2 E4                      sbcb    a,x
61D7 E2 EC                      61D7 E2 EC                      sbcb    a,y
61D9 E2 F5                      61D9 E2 F5                      sbcb    b,sp
61DB E2 E5                      61DB E2 E5                      sbcb    b,x
61DD E2 ED                      61DD E2 ED                      sbcb    b,y
61DF E2 F6                      61DF E2 F6                      sbcb    d,sp
61E1 E2 E6                      61E1 E2 E6                      sbcb    d,x
61E3 E2 EE                      61E3 E2 EE                      sbcb    d,y
61E5 D2 55                      61E5 D2 55                      sbcb    dir
61E7 D2 55                      61E7 D2 55                      sbcb    dir
61E9 F2 12 34                   61E9 F2 12 34                   sbcb    ext
61EC F2 12 34                   61EC F2 12 34                   sbcb    ext
61EF E2 F2 12 34                61EF E2 F2 12 34                sbcb    ext,sp
61F3 E2 E2 12 34                61F3 E2 E2 12 34                sbcb    ext,x
61F7 E2 EA 12 34                61F7 E2 EA 12 34                sbcb    ext,y
61FB E2 F8 37                   61FB E2 F8 37                   sbcb    ind,pc
61FE E2 F0 37                   61FE E2 F0 37                   sbcb    ind,sp
6201 E2 E0 37                   6201 E2 E0 37                   sbcb    ind,x
6204 E2 E8 37                   6204 E2 E8 37                   sbcb    ind,y
6207 E2 CE                      6207 E2 CE                      sbcb    small,pc
6209 E2 8E                      6209 E2 8E                      sbcb    small,sp
620B E2 0E                      620B E2 0E                      sbcb    small,x
620D E2 4E                      620D E2 4E                      sbcb    small,y
620F 14 01                      620F 14 01                      sec
6211 14 10                      6211 14 10                      sei
6213 14 02                      6213 14 02                      sev
6215 B7 04                      6215 B7 04                      sex     a, d
6217 B7 07                      6217 B7 07                      sex     a, sp
6219 B7 07                      6219 B7 07                      sex     a,sp
621B B7 05                      621B B7 05                      sex     a, x
621D B7 05                      621D B7 05                      sex     a,x
621F B7 06                      621F B7 06                      sex     a, y
6221 B7 06                      6221 B7 06                      sex     a,y
6223 B7 14                      6223 B7 14                      sex     b, d
6225 B7 17                      6225 B7 17                      sex     b, sp
6227 B7 17                      6227 B7 17                      sex     b,sp
6229 B7 15                      6229 B7 15                      sex     b, x
622B B7 15                      622B B7 15                      sex     b,x
622D B7 16                      622D B7 16                      sex     b, y
622F B7 16                      622F B7 16                      sex     b,y
6231 B7 24                      6231 B7 24                      sex     ccr, d
6233 B7 27                      6233 B7 27                      sex     ccr, sp
6235 B7 25                      6235 B7 25                      sex     ccr, x
6237 B7 26                      6237 B7 26                      sex     ccr, y
6239 6A A0                      6239 6A A0                      staa    1,+sp
623B 6A 20                      623B 6A 20                      staa    1,+x
623D 6A 60                      623D 6A 60                      staa    1,+y
623F 6A A7                      623F 6A A7                      staa    8,+sp
6241 6A 27                      6241 6A 27                      staa    8,+x
6243 6A 67                      6243 6A 67                      staa    8,+y
6245 6A C0                      6245 6A C0                      staa    ,pc
6247 6A 80                      6247 6A 80                      staa    ,sp
6249 6A 00                      6249 6A 00                      staa    ,x
624B 6A 40                      624B 6A 40                      staa    ,y
624D 6A AF                      624D 6A AF                      staa    1,-sp
624F 6A 2F                      624F 6A 2F                      staa    1,-x
6251 6A 6F                      6251 6A 6F                      staa    1,-y
6253 6A A8                      6253 6A A8                      staa    8,-sp
6255 6A 28                      6255 6A 28                      staa    8,-x
6257 6A 68                      6257 6A 68                      staa    8,-y
6259 6A 9F                      6259 6A 9F                      staa    -1,sp
625B 6A 1F                      625B 6A 1F                      staa    -1,x
625D 6A 5F                      625D 6A 5F                      staa    -1,y
625F 6A 90                      625F 6A 90                      staa    -16,sp
6261 6A 10                      6261 6A 10                      staa    -16,x
6263 6A 50                      6263 6A 50                      staa    -16,y
6265 6A F1 EF                   6265 6A F1 EF                   staa    -17,sp
6268 6A E1 EF                   6268 6A E1 EF                   staa    -17,x
626B 6A E9 EF                   626B 6A E9 EF                   staa    -17,y
626E 6A D2                      626E 6A D2                      staa    -small,pc
6270 6A 92                      6270 6A 92                      staa    -small,sp
6272 6A 12                      6272 6A 12                      staa    -small,x
6274 6A 52                      6274 6A 52                      staa    -small,y
6276 6A C0                      6276 6A C0                      staa    0,pc
6278 6A 80                      6278 6A 80                      staa    0,sp
627A 6A 00                      627A 6A 00                      staa    0,x
627C 6A 40                      627C 6A 40                      staa    0,y
627E 6A B0                      627E 6A B0                      staa    1,sp+
6280 6A 30                      6280 6A 30                      staa    1,x+
6282 6A 70                      6282 6A 70                      staa    1,y+
6284 6A 81                      6284 6A 81                      staa    1,sp
6286 6A 01                      6286 6A 01                      staa    1,x
6288 6A 41                      6288 6A 41                      staa    1,y
628A 6A BF                      628A 6A BF                      staa    1,sp-
628C 6A 3F                      628C 6A 3F                      staa    1,x-
628E 6A 7F                      628E 6A 7F                      staa    1,y-
6290 6A F8 7D                   6290 6A F8 7D                   staa    125,pc
6293 6A F0 7D                   6293 6A F0 7D                   staa    125,sp
6296 6A E0 7D                   6296 6A E0 7D                   staa    125,x
6299 6A E8 7D                   6299 6A E8 7D                   staa    125,y
629C 6A 8F                      629C 6A 8F                      staa    15,sp
629E 6A 0F                      629E 6A 0F                      staa    15,x
62A0 6A 4F                      62A0 6A 4F                      staa    15,y
62A2 6A F0 10                   62A2 6A F0 10                   staa    16,sp
62A5 6A E0 10                   62A5 6A E0 10                   staa    16,x
62A8 6A E8 10                   62A8 6A E8 10                   staa    16,y
62AB 6A B7                      62AB 6A B7                      staa    8,sp+
62AD 6A 37                      62AD 6A 37                      staa    8,x+
62AF 6A 77                      62AF 6A 77                      staa    8,y+
62B1 6A B8                      62B1 6A B8                      staa    8,sp-
62B3 6A 38                      62B3 6A 38                      staa    8,x-
62B5 6A 78                      62B5 6A 78                      staa    8,y-
62B7 6A F4                      62B7 6A F4                      staa    a,sp
62B9 6A E4                      62B9 6A E4                      staa    a,x
62BB 6A EC                      62BB 6A EC                      staa    a,y
62BD 6A F5                      62BD 6A F5                      staa    b,sp
62BF 6A E5                      62BF 6A E5                      staa    b,x
62C1 6A ED                      62C1 6A ED                      staa    b,y
62C3 6A F6                      62C3 6A F6                      staa    d,sp
62C5 6A E6                      62C5 6A E6                      staa    d,x
62C7 6A EE                      62C7 6A EE                      staa    d,y
62C9 5A 55                      62C9 5A 55                      staa    dir
62CB 5A 55                      62CB 5A 55                      staa    dir
62CD 7A 12 34                   62CD 7A 12 34                   staa    ext
62D0 7A 12 34                   62D0 7A 12 34                   staa    ext
62D3 6A F2 12 34                62D3 6A F2 12 34                staa    ext,sp
62D7 6A E2 12 34                62D7 6A E2 12 34                staa    ext,x
62DB 6A EA 12 34                62DB 6A EA 12 34                staa    ext,y
62DF 6A F8 37                   62DF 6A F8 37                   staa    ind,pc
62E2 6A F0 37                   62E2 6A F0 37                   staa    ind,sp
62E5 6A E0 37                   62E5 6A E0 37                   staa    ind,x
62E8 6A E8 37                   62E8 6A E8 37                   staa    ind,y
62EB 6A CE                      62EB 6A CE                      staa    small,pc
62ED 6A 8E                      62ED 6A 8E                      staa    small,sp
62EF 6A 0E                      62EF 6A 0E                      staa    small,x
62F1 6A 4E                      62F1 6A 4E                      staa    small,y
62F3 6B A0                      62F3 6B A0                      stab    1,+sp
62F5 6B 20                      62F5 6B 20                      stab    1,+x
62F7 6B 60                      62F7 6B 60                      stab    1,+y
62F9 6B A7                      62F9 6B A7                      stab    8,+sp
62FB 6B 27                      62FB 6B 27                      stab    8,+x
62FD 6B 67                      62FD 6B 67                      stab    8,+y
62FF 6B C0                      62FF 6B C0                      stab    ,pc
6301 6B 80                      6301 6B 80                      stab    ,sp
6303 6B 00                      6303 6B 00                      stab    ,x
6305 6B 40                      6305 6B 40                      stab    ,y
6307 6B AF                      6307 6B AF                      stab    1,-sp
6309 6B 2F                      6309 6B 2F                      stab    1,-x
630B 6B 6F                      630B 6B 6F                      stab    1,-y
630D 6B A8                      630D 6B A8                      stab    8,-sp
630F 6B 28                      630F 6B 28                      stab    8,-x
6311 6B 68                      6311 6B 68                      stab    8,-y
6313 6B 9F                      6313 6B 9F                      stab    -1,sp
6315 6B 1F                      6315 6B 1F                      stab    -1,x
6317 6B 5F                      6317 6B 5F                      stab    -1,y
6319 6B 90                      6319 6B 90                      stab    -16,sp
631B 6B 10                      631B 6B 10                      stab    -16,x
631D 6B 50                      631D 6B 50                      stab    -16,y
631F 6B F1 EF                   631F 6B F1 EF                   stab    -17,sp
6322 6B E1 EF                   6322 6B E1 EF                   stab    -17,x
6325 6B E9 EF                   6325 6B E9 EF                   stab    -17,y
6328 6B D2                      6328 6B D2                      stab    -small,pc
632A 6B 92                      632A 6B 92                      stab    -small,sp
632C 6B 12                      632C 6B 12                      stab    -small,x
632E 6B 52                      632E 6B 52                      stab    -small,y
6330 6B C0                      6330 6B C0                      stab    0,pc
6332 6B 80                      6332 6B 80                      stab    0,sp
6334 6B 00                      6334 6B 00                      stab    0,x
6336 6B 40                      6336 6B 40                      stab    0,y
6338 6B B0                      6338 6B B0                      stab    1,sp+
633A 6B 30                      633A 6B 30                      stab    1,x+
633C 6B 70                      633C 6B 70                      stab    1,y+
633E 6B 81                      633E 6B 81                      stab    1,sp
6340 6B 01                      6340 6B 01                      stab    1,x
6342 6B 41                      6342 6B 41                      stab    1,y
6344 6B BF                      6344 6B BF                      stab    1,sp-
6346 6B 3F                      6346 6B 3F                      stab    1,x-
6348 6B 7F                      6348 6B 7F                      stab    1,y-
634A 6B F8 7D                   634A 6B F8 7D                   stab    125,pc
634D 6B F0 7D                   634D 6B F0 7D                   stab    125,sp
6350 6B E0 7D                   6350 6B E0 7D                   stab    125,x
6353 6B E8 7D                   6353 6B E8 7D                   stab    125,y
6356 6B 8F                      6356 6B 8F                      stab    15,sp
6358 6B 0F                      6358 6B 0F                      stab    15,x
635A 6B 4F                      635A 6B 4F                      stab    15,y
635C 6B F0 10                   635C 6B F0 10                   stab    16,sp
635F 6B E0 10                   635F 6B E0 10                   stab    16,x
6362 6B E8 10                   6362 6B E8 10                   stab    16,y
6365 6B B7                      6365 6B B7                      stab    8,sp+
6367 6B 37                      6367 6B 37                      stab    8,x+
6369 6B 77                      6369 6B 77                      stab    8,y+
636B 6B B8                      636B 6B B8                      stab    8,sp-
636D 6B 38                      636D 6B 38                      stab    8,x-
636F 6B 78                      636F 6B 78                      stab    8,y-
6371 6B F4                      6371 6B F4                      stab    a,sp
6373 6B E4                      6373 6B E4                      stab    a,x
6375 6B EC                      6375 6B EC                      stab    a,y
6377 6B F5                      6377 6B F5                      stab    b,sp
6379 6B E5                      6379 6B E5                      stab    b,x
637B 6B ED                      637B 6B ED                      stab    b,y
637D 6B F6                      637D 6B F6                      stab    d,sp
637F 6B E6                      637F 6B E6                      stab    d,x
6381 6B EE                      6381 6B EE                      stab    d,y
6383 5B 55                      6383 5B 55                      stab    dir
6385 5B 55                      6385 5B 55                      stab    dir
6387 7B 12 34                   6387 7B 12 34                   stab    ext
638A 7B 12 34                   638A 7B 12 34                   stab    ext
638D 6B F2 12 34                638D 6B F2 12 34                stab    ext,sp
6391 6B E2 12 34                6391 6B E2 12 34                stab    ext,x
6395 6B EA 12 34                6395 6B EA 12 34                stab    ext,y
6399 6B F8 37                   6399 6B F8 37                   stab    ind,pc
639C 6B F0 37                   639C 6B F0 37                   stab    ind,sp
639F 6B E0 37                   639F 6B E0 37                   stab    ind,x
63A2 6B E8 37                   63A2 6B E8 37                   stab    ind,y
63A5 6B CE                      63A5 6B CE                      stab    small,pc
63A7 6B 8E                      63A7 6B 8E                      stab    small,sp
63A9 6B 0E                      63A9 6B 0E                      stab    small,x
63AB 6B 4E                      63AB 6B 4E                      stab    small,y
63AD 6C A0                      63AD 6C A0                      std     1,+sp
63AF 6C 20                      63AF 6C 20                      std     1,+x
63B1 6C 60                      63B1 6C 60                      std     1,+y
63B3 6C A7                      63B3 6C A7                      std     8,+sp
63B5 6C 27                      63B5 6C 27                      std     8,+x
63B7 6C 67                      63B7 6C 67                      std     8,+y
63B9 6C C0                      63B9 6C C0                      std     ,pc
63BB 6C 80                      63BB 6C 80                      std     ,sp
63BD 6C 00                      63BD 6C 00                      std     ,x
63BF 6C 40                      63BF 6C 40                      std     ,y
63C1 6C AF                      63C1 6C AF                      std     1,-sp
63C3 6C 2F                      63C3 6C 2F                      std     1,-x
63C5 6C 6F                      63C5 6C 6F                      std     1,-y
63C7 6C A8                      63C7 6C A8                      std     8,-sp
63C9 6C 28                      63C9 6C 28                      std     8,-x
63CB 6C 68                      63CB 6C 68                      std     8,-y
63CD 6C 9F                      63CD 6C 9F                      std     -1,sp
63CF 6C 1F                      63CF 6C 1F                      std     -1,x
63D1 6C 5F                      63D1 6C 5F                      std     -1,y
63D3 6C 90                      63D3 6C 90                      std     -16,sp
63D5 6C 10                      63D5 6C 10                      std     -16,x
63D7 6C 50                      63D7 6C 50                      std     -16,y
63D9 6C F1 EF                   63D9 6C F1 EF                   std     -17,sp
63DC 6C E1 EF                   63DC 6C E1 EF                   std     -17,x
63DF 6C E9 EF                   63DF 6C E9 EF                   std     -17,y
63E2 6C D2                      63E2 6C D2                      std     -small,pc
63E4 6C 92                      63E4 6C 92                      std     -small,sp
63E6 6C 12                      63E6 6C 12                      std     -small,x
63E8 6C 52                      63E8 6C 52                      std     -small,y
63EA 6C C0                      63EA 6C C0                      std     0,pc
63EC 6C 80                      63EC 6C 80                      std     0,sp
63EE 6C 00                      63EE 6C 00                      std     0,x
63F0 6C 40                      63F0 6C 40                      std     0,y
63F2 6C B0                      63F2 6C B0                      std     1,sp+
63F4 6C 30                      63F4 6C 30                      std     1,x+
63F6 6C 70                      63F6 6C 70                      std     1,y+
63F8 6C 81                      63F8 6C 81                      std     1,sp
63FA 6C 01                      63FA 6C 01                      std     1,x
63FC 6C 41                      63FC 6C 41                      std     1,y
63FE 6C BF                      63FE 6C BF                      std     1,sp-
6400 6C 3F                      6400 6C 3F                      std     1,x-
6402 6C 7F                      6402 6C 7F                      std     1,y-
6404 6C F8 7D                   6404 6C F8 7D                   std     125,pc
6407 6C F0 7D                   6407 6C F0 7D                   std     125,sp
640A 6C E0 7D                   640A 6C E0 7D                   std     125,x
640D 6C E8 7D                   640D 6C E8 7D                   std     125,y
6410 6C 8F                      6410 6C 8F                      std     15,sp
6412 6C 0F                      6412 6C 0F                      std     15,x
6414 6C 4F                      6414 6C 4F                      std     15,y
6416 6C F0 10                   6416 6C F0 10                   std     16,sp
6419 6C E0 10                   6419 6C E0 10                   std     16,x
641C 6C E8 10                   641C 6C E8 10                   std     16,y
641F 6C B7                      641F 6C B7                      std     8,sp+
6421 6C 37                      6421 6C 37                      std     8,x+
6423 6C 77                      6423 6C 77                      std     8,y+
6425 6C B8                      6425 6C B8                      std     8,sp-
6427 6C 38                      6427 6C 38                      std     8,x-
6429 6C 78                      6429 6C 78                      std     8,y-
642B 6C F4                      642B 6C F4                      std     a,sp
642D 6C E4                      642D 6C E4                      std     a,x
642F 6C EC                      642F 6C EC                      std     a,y
6431 6C F5                      6431 6C F5                      std     b,sp
6433 6C E5                      6433 6C E5                      std     b,x
6435 6C ED                      6435 6C ED                      std     b,y
6437 6C F6                      6437 6C F6                      std     d,sp
6439 6C E6                      6439 6C E6                      std     d,x
643B 6C EE                      643B 6C EE                      std     d,y
643D 5C 55                      643D 5C 55                      std     dir
643F 5C 55                      643F 5C 55                      std     dir
6441 7C 12 34                   6441 7C 12 34                   std     ext
6444 7C 12 34                   6444 7C 12 34                   std     ext
6447 6C F2 12 34                6447 6C F2 12 34                std     ext,sp
644B 6C E2 12 34                644B 6C E2 12 34                std     ext,x
644F 6C EA 12 34                644F 6C EA 12 34                std     ext,y
6453 6C F8 37                   6453 6C F8 37                   std     ind,pc
6456 6C F0 37                   6456 6C F0 37                   std     ind,sp
6459 6C E0 37                   6459 6C E0 37                   std     ind,x
645C 6C E8 37                   645C 6C E8 37                   std     ind,y
645F 6C CE                      645F 6C CE                      std     small,pc
6461 6C 8E                      6461 6C 8E                      std     small,sp
6463 6C 0E                      6463 6C 0E                      std     small,x
6465 6C 4E                      6465 6C 4E                      std     small,y
6467 18 3E                      6467 18 3E                      stop
6469 6F A0                      6469 6F A0                      sts     1,+sp
646B 6F 20                      646B 6F 20                      sts     1,+x
646D 6F 60                      646D 6F 60                      sts     1,+y
646F 6F A7                      646F 6F A7                      sts     8,+sp
6471 6F 27                      6471 6F 27                      sts     8,+x
6473 6F 67                      6473 6F 67                      sts     8,+y
6475 6F C0                      6475 6F C0                      sts     ,pc
6477 6F 80                      6477 6F 80                      sts     ,sp
6479 6F 00                      6479 6F 00                      sts     ,x
647B 6F 40                      647B 6F 40                      sts     ,y
647D 6F AF                      647D 6F AF                      sts     1,-sp
647F 6F 2F                      647F 6F 2F                      sts     1,-x
6481 6F 6F                      6481 6F 6F                      sts     1,-y
6483 6F A8                      6483 6F A8                      sts     8,-sp
6485 6F 28                      6485 6F 28                      sts     8,-x
6487 6F 68                      6487 6F 68                      sts     8,-y
6489 6F 9F                      6489 6F 9F                      sts     -1,sp
648B 6F 1F                      648B 6F 1F                      sts     -1,x
648D 6F 5F                      648D 6F 5F                      sts     -1,y
648F 6F 90                      648F 6F 90                      sts     -16,sp
6491 6F 10                      6491 6F 10                      sts     -16,x
6493 6F 50                      6493 6F 50                      sts     -16,y
6495 6F F1 EF                   6495 6F F1 EF                   sts     -17,sp
6498 6F E1 EF                   6498 6F E1 EF                   sts     -17,x
649B 6F E9 EF                   649B 6F E9 EF                   sts     -17,y
649E 6F D2                      649E 6F D2                      sts     -small,pc
64A0 6F 92                      64A0 6F 92                      sts     -small,sp
64A2 6F 12                      64A2 6F 12                      sts     -small,x
64A4 6F 52                      64A4 6F 52                      sts     -small,y
64A6 6F C0                      64A6 6F C0                      sts     0,pc
64A8 6F 80                      64A8 6F 80                      sts     0,sp
64AA 6F 00                      64AA 6F 00                      sts     0,x
64AC 6F 40                      64AC 6F 40                      sts     0,y
64AE 6F B0                      64AE 6F B0                      sts     1,sp+
64B0 6F 30                      64B0 6F 30                      sts     1,x+
64B2 6F 70                      64B2 6F 70                      sts     1,y+
64B4 6F 81                      64B4 6F 81                      sts     1,sp
64B6 6F 01                      64B6 6F 01                      sts     1,x
64B8 6F 41                      64B8 6F 41                      sts     1,y
64BA 6F BF                      64BA 6F BF                      sts     1,sp-
64BC 6F 3F                      64BC 6F 3F                      sts     1,x-
64BE 6F 7F                      64BE 6F 7F                      sts     1,y-
64C0 6F F8 7D                   64C0 6F F8 7D                   sts     125,pc
64C3 6F F0 7D                   64C3 6F F0 7D                   sts     125,sp
64C6 6F E0 7D                   64C6 6F E0 7D                   sts     125,x
64C9 6F E8 7D                   64C9 6F E8 7D                   sts     125,y
64CC 6F 8F                      64CC 6F 8F                      sts     15,sp
64CE 6F 0F                      64CE 6F 0F                      sts     15,x
64D0 6F 4F                      64D0 6F 4F                      sts     15,y
64D2 6F F0 10                   64D2 6F F0 10                   sts     16,sp
64D5 6F E0 10                   64D5 6F E0 10                   sts     16,x
64D8 6F E8 10                   64D8 6F E8 10                   sts     16,y
64DB 6F B7                      64DB 6F B7                      sts     8,sp+
64DD 6F 37                      64DD 6F 37                      sts     8,x+
64DF 6F 77                      64DF 6F 77                      sts     8,y+
64E1 6F B8                      64E1 6F B8                      sts     8,sp-
64E3 6F 38                      64E3 6F 38                      sts     8,x-
64E5 6F 78                      64E5 6F 78                      sts     8,y-
64E7 6F F4                      64E7 6F F4                      sts     a,sp
64E9 6F E4                      64E9 6F E4                      sts     a,x
64EB 6F EC                      64EB 6F EC                      sts     a,y
64ED 6F F5                      64ED 6F F5                      sts     b,sp
64EF 6F E5                      64EF 6F E5                      sts     b,x
64F1 6F ED                      64F1 6F ED                      sts     b,y
64F3 6F F6                      64F3 6F F6                      sts     d,sp
64F5 6F E6                      64F5 6F E6                      sts     d,x
64F7 6F EE                      64F7 6F EE                      sts     d,y
64F9 5F 55                      64F9 5F 55                      sts     dir
64FB 7F 12 34                   64FB 7F 12 34                   sts     ext
64FE 6F F2 12 34                64FE 6F F2 12 34                sts     ext,sp
6502 6F E2 12 34                6502 6F E2 12 34                sts     ext,x
6506 6F EA 12 34                6506 6F EA 12 34                sts     ext,y
650A 6F F8 37                   650A 6F F8 37                   sts     ind,pc
650D 6F F0 37                   650D 6F F0 37                   sts     ind,sp
6510 6F E0 37                   6510 6F E0 37                   sts     ind,x
6513 6F E8 37                   6513 6F E8 37                   sts     ind,y
6516 6F CE                      6516 6F CE                      sts     small,pc
6518 6F 8E                      6518 6F 8E                      sts     small,sp
651A 6F 0E                      651A 6F 0E                      sts     small,x
651C 6F 4E                      651C 6F 4E                      sts     small,y
651E 6E A0                      651E 6E A0                      stx     1,+sp
6520 6E 20                      6520 6E 20                      stx     1,+x
6522 6E 60                      6522 6E 60                      stx     1,+y
6524 6E A7                      6524 6E A7                      stx     8,+sp
6526 6E 27                      6526 6E 27                      stx     8,+x
6528 6E 67                      6528 6E 67                      stx     8,+y
652A 6E C0                      652A 6E C0                      stx     ,pc
652C 6E 80                      652C 6E 80                      stx     ,sp
652E 6E 00                      652E 6E 00                      stx     ,x
6530 6E 40                      6530 6E 40                      stx     ,y
6532 6E AF                      6532 6E AF                      stx     1,-sp
6534 6E 2F                      6534 6E 2F                      stx     1,-x
6536 6E 6F                      6536 6E 6F                      stx     1,-y
6538 6E A8                      6538 6E A8                      stx     8,-sp
653A 6E 28                      653A 6E 28                      stx     8,-x
653C 6E 68                      653C 6E 68                      stx     8,-y
653E 6E 9F                      653E 6E 9F                      stx     -1,sp
6540 6E 1F                      6540 6E 1F                      stx     -1,x
6542 6E 5F                      6542 6E 5F                      stx     -1,y
6544 6E 90                      6544 6E 90                      stx     -16,sp
6546 6E 10                      6546 6E 10                      stx     -16,x
6548 6E 50                      6548 6E 50                      stx     -16,y
654A 6E F1 EF                   654A 6E F1 EF                   stx     -17,sp
654D 6E E1 EF                   654D 6E E1 EF                   stx     -17,x
6550 6E E9 EF                   6550 6E E9 EF                   stx     -17,y
6553 6E D2                      6553 6E D2                      stx     -small,pc
6555 6E 92                      6555 6E 92                      stx     -small,sp
6557 6E 12                      6557 6E 12                      stx     -small,x
6559 6E 52                      6559 6E 52                      stx     -small,y
655B 6E C0                      655B 6E C0                      stx     0,pc
655D 6E 80                      655D 6E 80                      stx     0,sp
655F 6E 00                      655F 6E 00                      stx     0,x
6561 6E 40                      6561 6E 40                      stx     0,y
6563 6E B0                      6563 6E B0                      stx     1,sp+
6565 6E 30                      6565 6E 30                      stx     1,x+
6567 6E 70                      6567 6E 70                      stx     1,y+
6569 6E 81                      6569 6E 81                      stx     1,sp
656B 6E 01                      656B 6E 01                      stx     1,x
656D 6E 41                      656D 6E 41                      stx     1,y
656F 6E BF                      656F 6E BF                      stx     1,sp-
6571 6E 3F                      6571 6E 3F                      stx     1,x-
6573 6E 7F                      6573 6E 7F                      stx     1,y-
6575 6E F8 7D                   6575 6E F8 7D                   stx     125,pc
6578 6E F0 7D                   6578 6E F0 7D                   stx     125,sp
657B 6E E0 7D                   657B 6E E0 7D                   stx     125,x
657E 6E E8 7D                   657E 6E E8 7D                   stx     125,y
6581 6E 8F                      6581 6E 8F                      stx     15,sp
6583 6E 0F                      6583 6E 0F                      stx     15,x
6585 6E 4F                      6585 6E 4F                      stx     15,y
6587 6E F0 10                   6587 6E F0 10                   stx     16,sp
658A 6E E0 10                   658A 6E E0 10                   stx     16,x
658D 6E E8 10                   658D 6E E8 10                   stx     16,y
6590 6E B7                      6590 6E B7                      stx     8,sp+
6592 6E 37                      6592 6E 37                      stx     8,x+
6594 6E 77                      6594 6E 77                      stx     8,y+
6596 6E B8                      6596 6E B8                      stx     8,sp-
6598 6E 38                      6598 6E 38                      stx     8,x-
659A 6E 78                      659A 6E 78                      stx     8,y-
659C 6E F4                      659C 6E F4                      stx     a,sp
659E 6E E4                      659E 6E E4                      stx     a,x
65A0 6E EC                      65A0 6E EC                      stx     a,y
65A2 6E F5                      65A2 6E F5                      stx     b,sp
65A4 6E E5                      65A4 6E E5                      stx     b,x
65A6 6E ED                      65A6 6E ED                      stx     b,y
65A8 6E F6                      65A8 6E F6                      stx     d,sp
65AA 6E E6                      65AA 6E E6                      stx     d,x
65AC 6E EE                      65AC 6E EE                      stx     d,y
65AE 5E 55                      65AE 5E 55                      stx     dir
65B0 5E 55                      65B0 5E 55                      stx     dir
65B2 7E 12 34                   65B2 7E 12 34                   stx     ext
65B5 7E 12 34                   65B5 7E 12 34                   stx     ext
65B8 6E F2 12 34                65B8 6E F2 12 34                stx     ext,sp
65BC 6E E2 12 34                65BC 6E E2 12 34                stx     ext,x
65C0 6E EA 12 34                65C0 6E EA 12 34                stx     ext,y
65C4 6E F8 37                   65C4 6E F8 37                   stx     ind,pc
65C7 6E F0 37                   65C7 6E F0 37                   stx     ind,sp
65CA 6E E0 37                   65CA 6E E0 37                   stx     ind,x
65CD 6E E8 37                   65CD 6E E8 37                   stx     ind,y
65D0 6E CE                      65D0 6E CE                      stx     small,pc
65D2 6E 8E                      65D2 6E 8E                      stx     small,sp
65D4 6E 0E                      65D4 6E 0E                      stx     small,x
65D6 6E 4E                      65D6 6E 4E                      stx     small,y
65D8 6D A0                      65D8 6D A0                      sty     1,+sp
65DA 6D 20                      65DA 6D 20                      sty     1,+x
65DC 6D 60                      65DC 6D 60                      sty     1,+y
65DE 6D A7                      65DE 6D A7                      sty     8,+sp
65E0 6D 27                      65E0 6D 27                      sty     8,+x
65E2 6D 67                      65E2 6D 67                      sty     8,+y
65E4 6D C0                      65E4 6D C0                      sty     ,pc
65E6 6D 80                      65E6 6D 80                      sty     ,sp
65E8 6D 00                      65E8 6D 00                      sty     ,x
65EA 6D 40                      65EA 6D 40                      sty     ,y
65EC 6D AF                      65EC 6D AF                      sty     1,-sp
65EE 6D 2F                      65EE 6D 2F                      sty     1,-x
65F0 6D 6F                      65F0 6D 6F                      sty     1,-y
65F2 6D A8                      65F2 6D A8                      sty     8,-sp
65F4 6D 28                      65F4 6D 28                      sty     8,-x
65F6 6D 68                      65F6 6D 68                      sty     8,-y
65F8 6D 9F                      65F8 6D 9F                      sty     -1,sp
65FA 6D 1F                      65FA 6D 1F                      sty     -1,x
65FC 6D 5F                      65FC 6D 5F                      sty     -1,y
65FE 6D 90                      65FE 6D 90                      sty     -16,sp
6600 6D 10                      6600 6D 10                      sty     -16,x
6602 6D 50                      6602 6D 50                      sty     -16,y
6604 6D F1 EF                   6604 6D F1 EF                   sty     -17,sp
6607 6D E1 EF                   6607 6D E1 EF                   sty     -17,x
660A 6D E9 EF                   660A 6D E9 EF                   sty     -17,y
660D 6D D2                      660D 6D D2                      sty     -small,pc
660F 6D 92                      660F 6D 92                      sty     -small,sp
6611 6D 12                      6611 6D 12                      sty     -small,x
6613 6D 52                      6613 6D 52                      sty     -small,y
6615 6D C0                      6615 6D C0                      sty     0,pc
6617 6D 80                      6617 6D 80                      sty     0,sp
6619 6D 00                      6619 6D 00                      sty     0,x
661B 6D 40                      661B 6D 40                      sty     0,y
661D 6D B0                      661D 6D B0                      sty     1,sp+
661F 6D 30                      661F 6D 30                      sty     1,x+
6621 6D 70                      6621 6D 70                      sty     1,y+
6623 6D 81                      6623 6D 81                      sty     1,sp
6625 6D 01                      6625 6D 01                      sty     1,x
6627 6D 41                      6627 6D 41                      sty     1,y
6629 6D BF                      6629 6D BF                      sty     1,sp-
662B 6D 3F                      662B 6D 3F                      sty     1,x-
662D 6D 7F                      662D 6D 7F                      sty     1,y-
662F 6D F8 7D                   662F 6D F8 7D                   sty     125,pc
6632 6D F0 7D                   6632 6D F0 7D                   sty     125,sp
6635 6D E0 7D                   6635 6D E0 7D                   sty     125,x
6638 6D E8 7D                   6638 6D E8 7D                   sty     125,y
663B 6D 8F                      663B 6D 8F                      sty     15,sp
663D 6D 0F                      663D 6D 0F                      sty     15,x
663F 6D 4F                      663F 6D 4F                      sty     15,y
6641 6D F0 10                   6641 6D F0 10                   sty     16,sp
6644 6D E0 10                   6644 6D E0 10                   sty     16,x
6647 6D E8 10                   6647 6D E8 10                   sty     16,y
664A 6D B7                      664A 6D B7                      sty     8,sp+
664C 6D 37                      664C 6D 37                      sty     8,x+
664E 6D 77                      664E 6D 77                      sty     8,y+
6650 6D B8                      6650 6D B8                      sty     8,sp-
6652 6D 38                      6652 6D 38                      sty     8,x-
6654 6D 78                      6654 6D 78                      sty     8,y-
6656 6D F4                      6656 6D F4                      sty     a,sp
6658 6D E4                      6658 6D E4                      sty     a,x
665A 6D EC                      665A 6D EC                      sty     a,y
665C 6D F5                      665C 6D F5                      sty     b,sp
665E 6D E5                      665E 6D E5                      sty     b,x
6660 6D ED                      6660 6D ED                      sty     b,y
6662 6D F6                      6662 6D F6                      sty     d,sp
6664 6D E6                      6664 6D E6                      sty     d,x
6666 6D EE                      6666 6D EE                      sty     d,y
6668 5D 55                      6668 5D 55                      sty     dir
666A 5D 55                      666A 5D 55                      sty     dir
666C 7D 12 34                   666C 7D 12 34                   sty     ext
666F 7D 12 34                   666F 7D 12 34                   sty     ext
6672 6D F2 12 34                6672 6D F2 12 34                sty     ext,sp
6676 6D E2 12 34                6676 6D E2 12 34                sty     ext,x
667A 6D EA 12 34                667A 6D EA 12 34                sty     ext,y
667E 6D F8 37                   667E 6D F8 37                   sty     ind,pc
6681 6D F0 37                   6681 6D F0 37                   sty     ind,sp
6684 6D E0 37                   6684 6D E0 37                   sty     ind,x
6687 6D E8 37                   6687 6D E8 37                   sty     ind,y
668A 6D CE                      668A 6D CE                      sty     small,pc
668C 6D 8E                      668C 6D 8E                      sty     small,sp
668E 6D 0E                      668E 6D 0E                      sty     small,x
6690 6D 4E                      6690 6D 4E                      sty     small,y
6692 80 72                      6692 80 72                      suba    #immed
6694 A0 A0                      6694 A0 A0                      suba    1,+sp
6696 A0 20                      6696 A0 20                      suba    1,+x
6698 A0 60                      6698 A0 60                      suba    1,+y
669A A0 A7                      669A A0 A7                      suba    8,+sp
669C A0 27                      669C A0 27                      suba    8,+x
669E A0 67                      669E A0 67                      suba    8,+y
66A0 A0 C0                      66A0 A0 C0                      suba    ,pc
66A2 A0 80                      66A2 A0 80                      suba    ,sp
66A4 A0 00                      66A4 A0 00                      suba    ,x
66A6 A0 40                      66A6 A0 40                      suba    ,y
66A8 A0 AF                      66A8 A0 AF                      suba    1,-sp
66AA A0 2F                      66AA A0 2F                      suba    1,-x
66AC A0 6F                      66AC A0 6F                      suba    1,-y
66AE A0 A8                      66AE A0 A8                      suba    8,-sp
66B0 A0 28                      66B0 A0 28                      suba    8,-x
66B2 A0 68                      66B2 A0 68                      suba    8,-y
66B4 A0 9F                      66B4 A0 9F                      suba    -1,sp
66B6 A0 1F                      66B6 A0 1F                      suba    -1,x
66B8 A0 5F                      66B8 A0 5F                      suba    -1,y
66BA A0 90                      66BA A0 90                      suba    -16,sp
66BC A0 10                      66BC A0 10                      suba    -16,x
66BE A0 50                      66BE A0 50                      suba    -16,y
66C0 A0 F1 EF                   66C0 A0 F1 EF                   suba    -17,sp
66C3 A0 E1 EF                   66C3 A0 E1 EF                   suba    -17,x
66C6 A0 E9 EF                   66C6 A0 E9 EF                   suba    -17,y
66C9 A0 D2                      66C9 A0 D2                      suba    -small,pc
66CB A0 92                      66CB A0 92                      suba    -small,sp
66CD A0 12                      66CD A0 12                      suba    -small,x
66CF A0 52                      66CF A0 52                      suba    -small,y
66D1 A0 C0                      66D1 A0 C0                      suba    0,pc
66D3 A0 80                      66D3 A0 80                      suba    0,sp
66D5 A0 00                      66D5 A0 00                      suba    0,x
66D7 A0 40                      66D7 A0 40                      suba    0,y
66D9 A0 B0                      66D9 A0 B0                      suba    1,sp+
66DB A0 30                      66DB A0 30                      suba    1,x+
66DD A0 70                      66DD A0 70                      suba    1,y+
66DF A0 81                      66DF A0 81                      suba    1,sp
66E1 A0 01                      66E1 A0 01                      suba    1,x
66E3 A0 41                      66E3 A0 41                      suba    1,y
66E5 A0 BF                      66E5 A0 BF                      suba    1,sp-
66E7 A0 3F                      66E7 A0 3F                      suba    1,x-
66E9 A0 7F                      66E9 A0 7F                      suba    1,y-
66EB A0 F8 7D                   66EB A0 F8 7D                   suba    125,pc
66EE A0 F0 7D                   66EE A0 F0 7D                   suba    125,sp
66F1 A0 E0 7D                   66F1 A0 E0 7D                   suba    125,x
66F4 A0 E8 7D                   66F4 A0 E8 7D                   suba    125,y
66F7 A0 8F                      66F7 A0 8F                      suba    15,sp
66F9 A0 0F                      66F9 A0 0F                      suba    15,x
66FB A0 4F                      66FB A0 4F                      suba    15,y
66FD A0 F0 10                   66FD A0 F0 10                   suba    16,sp
6700 A0 E0 10                   6700 A0 E0 10                   suba    16,x
6703 A0 E8 10                   6703 A0 E8 10                   suba    16,y
6706 A0 B7                      6706 A0 B7                      suba    8,sp+
6708 A0 37                      6708 A0 37                      suba    8,x+
670A A0 77                      670A A0 77                      suba    8,y+
670C A0 B8                      670C A0 B8                      suba    8,sp-
670E A0 38                      670E A0 38                      suba    8,x-
6710 A0 78                      6710 A0 78                      suba    8,y-
6712 A0 F4                      6712 A0 F4                      suba    a,sp
6714 A0 E4                      6714 A0 E4                      suba    a,x
6716 A0 EC                      6716 A0 EC                      suba    a,y
6718 A0 F5                      6718 A0 F5                      suba    b,sp
671A A0 E5                      671A A0 E5                      suba    b,x
671C A0 ED                      671C A0 ED                      suba    b,y
671E A0 F6                      671E A0 F6                      suba    d,sp
6720 A0 E6                      6720 A0 E6                      suba    d,x
6722 A0 EE                      6722 A0 EE                      suba    d,y
6724 90 55                      6724 90 55                      suba    dir
6726 B0 12 34                   6726 B0 12 34                   suba    ext
6729 A0 F2 12 34                6729 A0 F2 12 34                suba    ext,sp
672D A0 E2 12 34                672D A0 E2 12 34                suba    ext,x
6731 A0 EA 12 34                6731 A0 EA 12 34                suba    ext,y
6735 A0 F8 37                   6735 A0 F8 37                   suba    ind,pc
6738 A0 F0 37                   6738 A0 F0 37                   suba    ind,sp
673B A0 E0 37                   673B A0 E0 37                   suba    ind,x
673E A0 E8 37                   673E A0 E8 37                   suba    ind,y
6741 A0 CE                      6741 A0 CE                      suba    small,pc
6743 A0 8E                      6743 A0 8E                      suba    small,sp
6745 A0 0E                      6745 A0 0E                      suba    small,x
6747 A0 4E                      6747 A0 4E                      suba    small,y
6749 C0 72                      6749 C0 72                      subb    #immed
674B C0 72                      674B C0 72                      subb    #immed
674D E0 A0                      674D E0 A0                      subb    1,+sp
674F E0 20                      674F E0 20                      subb    1,+x
6751 E0 60                      6751 E0 60                      subb    1,+y
6753 E0 A7                      6753 E0 A7                      subb    8,+sp
6755 E0 27                      6755 E0 27                      subb    8,+x
6757 E0 67                      6757 E0 67                      subb    8,+y
6759 E0 C0                      6759 E0 C0                      subb    ,pc
675B E0 80                      675B E0 80                      subb    ,sp
675D E0 00                      675D E0 00                      subb    ,x
675F E0 40                      675F E0 40                      subb    ,y
6761 E0 AF                      6761 E0 AF                      subb    1,-sp
6763 E0 2F                      6763 E0 2F                      subb    1,-x
6765 E0 6F                      6765 E0 6F                      subb    1,-y
6767 E0 A8                      6767 E0 A8                      subb    8,-sp
6769 E0 28                      6769 E0 28                      subb    8,-x
676B E0 68                      676B E0 68                      subb    8,-y
676D E0 9F                      676D E0 9F                      subb    -1,sp
676F E0 1F                      676F E0 1F                      subb    -1,x
6771 E0 5F                      6771 E0 5F                      subb    -1,y
6773 E0 90                      6773 E0 90                      subb    -16,sp
6775 E0 10                      6775 E0 10                      subb    -16,x
6777 E0 50                      6777 E0 50                      subb    -16,y
6779 E0 F1 EF                   6779 E0 F1 EF                   subb    -17,sp
677C E0 E1 EF                   677C E0 E1 EF                   subb    -17,x
677F E0 E9 EF                   677F E0 E9 EF                   subb    -17,y
6782 E0 D2                      6782 E0 D2                      subb    -small,pc
6784 E0 92                      6784 E0 92                      subb    -small,sp
6786 E0 12                      6786 E0 12                      subb    -small,x
6788 E0 52                      6788 E0 52                      subb    -small,y
678A E0 C0                      678A E0 C0                      subb    0,pc
678C E0 80                      678C E0 80                      subb    0,sp
678E E0 00                      678E E0 00                      subb    0,x
6790 E0 40                      6790 E0 40                      subb    0,y
6792 E0 B0                      6792 E0 B0                      subb    1,sp+
6794 E0 30                      6794 E0 30                      subb    1,x+
6796 E0 70                      6796 E0 70                      subb    1,y+
6798 E0 81                      6798 E0 81                      subb    1,sp
679A E0 01                      679A E0 01                      subb    1,x
679C E0 41                      679C E0 41                      subb    1,y
679E E0 BF                      679E E0 BF                      subb    1,sp-
67A0 E0 3F                      67A0 E0 3F                      subb    1,x-
67A2 E0 7F                      67A2 E0 7F                      subb    1,y-
67A4 E0 F8 7D                   67A4 E0 F8 7D                   subb    125,pc
67A7 E0 F0 7D                   67A7 E0 F0 7D                   subb    125,sp
67AA E0 E0 7D                   67AA E0 E0 7D                   subb    125,x
67AD E0 E8 7D                   67AD E0 E8 7D                   subb    125,y
67B0 E0 8F                      67B0 E0 8F                      subb    15,sp
67B2 E0 0F                      67B2 E0 0F                      subb    15,x
67B4 E0 4F                      67B4 E0 4F                      subb    15,y
67B6 E0 F0 10                   67B6 E0 F0 10                   subb    16,sp
67B9 E0 E0 10                   67B9 E0 E0 10                   subb    16,x
67BC E0 E8 10                   67BC E0 E8 10                   subb    16,y
67BF E0 B7                      67BF E0 B7                      subb    8,sp+
67C1 E0 37                      67C1 E0 37                      subb    8,x+
67C3 E0 77                      67C3 E0 77                      subb    8,y+
67C5 E0 B8                      67C5 E0 B8                      subb    8,sp-
67C7 E0 38                      67C7 E0 38                      subb    8,x-
67C9 E0 78                      67C9 E0 78                      subb    8,y-
67CB E0 F4                      67CB E0 F4                      subb    a,sp
67CD E0 E4                      67CD E0 E4                      subb    a,x
67CF E0 EC                      67CF E0 EC                      subb    a,y
67D1 E0 F5                      67D1 E0 F5                      subb    b,sp
67D3 E0 E5                      67D3 E0 E5                      subb    b,x
67D5 E0 ED                      67D5 E0 ED                      subb    b,y
67D7 E0 F6                      67D7 E0 F6                      subb    d,sp
67D9 E0 E6                      67D9 E0 E6                      subb    d,x
67DB E0 EE                      67DB E0 EE                      subb    d,y
67DD D0 55                      67DD D0 55                      subb    dir
67DF D0 55                      67DF D0 55                      subb    dir
67E1 F0 12 34                   67E1 F0 12 34                   subb    ext
67E4 F0 12 34                   67E4 F0 12 34                   subb    ext
67E7 E0 F2 12 34                67E7 E0 F2 12 34                subb    ext,sp
67EB E0 E2 12 34                67EB E0 E2 12 34                subb    ext,x
67EF E0 EA 12 34                67EF E0 EA 12 34                subb    ext,y
67F3 E0 F8 37                   67F3 E0 F8 37                   subb    ind,pc
67F6 E0 F0 37                   67F6 E0 F0 37                   subb    ind,sp
67F9 E0 E0 37                   67F9 E0 E0 37                   subb    ind,x
67FC E0 E8 37                   67FC E0 E8 37                   subb    ind,y
67FF E0 CE                      67FF E0 CE                      subb    small,pc
6801 E0 8E                      6801 E0 8E                      subb    small,sp
6803 E0 0E                      6803 E0 0E                      subb    small,x
6805 E0 4E                      6805 E0 4E                      subb    small,y
6807 83 00 72                   6807 83 00 72                   subd    #immed
680A 83 00 72                   680A 83 00 72                   subd    #immed
680D A3 A0                      680D A3 A0                      subd    1,+sp
680F A3 20                      680F A3 20                      subd    1,+x
6811 A3 60                      6811 A3 60                      subd    1,+y
6813 A3 A7                      6813 A3 A7                      subd    8,+sp
6815 A3 27                      6815 A3 27                      subd    8,+x
6817 A3 67                      6817 A3 67                      subd    8,+y
6819 A3 C0                      6819 A3 C0                      subd    ,pc
681B A3 80                      681B A3 80                      subd    ,sp
681D A3 00                      681D A3 00                      subd    ,x
681F A3 40                      681F A3 40                      subd    ,y
6821 A3 AF                      6821 A3 AF                      subd    1,-sp
6823 A3 2F                      6823 A3 2F                      subd    1,-x
6825 A3 6F                      6825 A3 6F                      subd    1,-y
6827 A3 A8                      6827 A3 A8                      subd    8,-sp
6829 A3 28                      6829 A3 28                      subd    8,-x
682B A3 68                      682B A3 68                      subd    8,-y
682D A3 9F                      682D A3 9F                      subd    -1,sp
682F A3 1F                      682F A3 1F                      subd    -1,x
6831 A3 5F                      6831 A3 5F                      subd    -1,y
6833 A3 90                      6833 A3 90                      subd    -16,sp
6835 A3 10                      6835 A3 10                      subd    -16,x
6837 A3 50                      6837 A3 50                      subd    -16,y
6839 A3 F1 EF                   6839 A3 F1 EF                   subd    -17,sp
683C A3 E1 EF                   683C A3 E1 EF                   subd    -17,x
683F A3 E9 EF                   683F A3 E9 EF                   subd    -17,y
6842 A3 D2                      6842 A3 D2                      subd    -small,pc
6844 A3 92                      6844 A3 92                      subd    -small,sp
6846 A3 12                      6846 A3 12                      subd    -small,x
6848 A3 52                      6848 A3 52                      subd    -small,y
684A A3 C0                      684A A3 C0                      subd    0,pc
684C A3 80                      684C A3 80                      subd    0,sp
684E A3 00                      684E A3 00                      subd    0,x
6850 A3 40                      6850 A3 40                      subd    0,y
6852 A3 B0                      6852 A3 B0                      subd    1,sp+
6854 A3 30                      6854 A3 30                      subd    1,x+
6856 A3 70                      6856 A3 70                      subd    1,y+
6858 A3 81                      6858 A3 81                      subd    1,sp
685A A3 01                      685A A3 01                      subd    1,x
685C A3 41                      685C A3 41                      subd    1,y
685E A3 BF                      685E A3 BF                      subd    1,sp-
6860 A3 3F                      6860 A3 3F                      subd    1,x-
6862 A3 7F                      6862 A3 7F                      subd    1,y-
6864 A3 F8 7D                   6864 A3 F8 7D                   subd    125,pc
6867 A3 F0 7D                   6867 A3 F0 7D                   subd    125,sp
686A A3 E0 7D                   686A A3 E0 7D                   subd    125,x
686D A3 E8 7D                   686D A3 E8 7D                   subd    125,y
6870 A3 8F                      6870 A3 8F                      subd    15,sp
6872 A3 0F                      6872 A3 0F                      subd    15,x
6874 A3 4F                      6874 A3 4F                      subd    15,y
6876 A3 F0 10                   6876 A3 F0 10                   subd    16,sp
6879 A3 E0 10                   6879 A3 E0 10                   subd    16,x
687C A3 E8 10                   687C A3 E8 10                   subd    16,y
687F A3 B7                      687F A3 B7                      subd    8,sp+
6881 A3 37                      6881 A3 37                      subd    8,x+
6883 A3 77                      6883 A3 77                      subd    8,y+
6885 A3 B8                      6885 A3 B8                      subd    8,sp-
6887 A3 38                      6887 A3 38                      subd    8,x-
6889 A3 78                      6889 A3 78                      subd    8,y-
688B A3 F4                      688B A3 F4                      subd    a,sp
688D A3 E4                      688D A3 E4                      subd    a,x
688F A3 EC                      688F A3 EC                      subd    a,y
6891 A3 F5                      6891 A3 F5                      subd    b,sp
6893 A3 E5                      6893 A3 E5                      subd    b,x
6895 A3 ED                      6895 A3 ED                      subd    b,y
6897 A3 F6                      6897 A3 F6                      subd    d,sp
6899 A3 E6                      6899 A3 E6                      subd    d,x
689B A3 EE                      689B A3 EE                      subd    d,y
689D 93 55                      689D 93 55                      subd    dir
689F 93 55                      689F 93 55                      subd    dir
68A1 B3 12 34                   68A1 B3 12 34                   subd    ext
68A4 B3 12 34                   68A4 B3 12 34                   subd    ext
68A7 A3 F2 12 34                68A7 A3 F2 12 34                subd    ext,sp
68AB A3 E2 12 34                68AB A3 E2 12 34                subd    ext,x
68AF A3 EA 12 34                68AF A3 EA 12 34                subd    ext,y
68B3 A3 F8 37                   68B3 A3 F8 37                   subd    ind,pc
68B6 A3 F0 37                   68B6 A3 F0 37                   subd    ind,sp
68B9 A3 E0 37                   68B9 A3 E0 37                   subd    ind,x
68BC A3 E8 37                   68BC A3 E8 37                   subd    ind,y
68BF A3 CE                      68BF A3 CE                      subd    small,pc
68C1 A3 8E                      68C1 A3 8E                      subd    small,sp
68C3 A3 0E                      68C3 A3 0E                      subd    small,x
68C5 A3 4E                      68C5 A3 4E                      subd    small,y
68C7 3F                         68C7 3F                         swi
68C8 18 0E                      68C8 18 0E                      tab
68CA B7 02                      68CA B7 02                      tap
68CC 18 0F                      68CC 18 0F                      tba
68CE 18 3D E5                   68CE 18 3D E5                   tbl     b,x
68D1 B7 00                      68D1 B7 00                      tfr     a, a
68D3 B7 00                      68D3 B7 00                      tfr     a,a
68D5 B7 01                      68D5 B7 01                      tfr     a, b
68D7 B7 01                      68D7 B7 01                      tfr     a,b
68D9 B7 02                      68D9 B7 02                      tfr     a, ccr
68DB B7 04                      68DB B7 04                      tfr     a, d
68DD B7 07                      68DD B7 07                      tfr     a, sp
68DF B7 05                      68DF B7 05                      tfr     a, x
68E1 B7 05                      68E1 B7 05                      tfr     a,x
68E3 B7 06                      68E3 B7 06                      tfr     a, y
68E5 B7 06                      68E5 B7 06                      tfr     a,y
68E7 B7 10                      68E7 B7 10                      tfr     b, a
68E9 B7 11                      68E9 B7 11                      tfr     b, b
68EB B7 12                      68EB B7 12                      tfr     b, ccr
68ED B7 14                      68ED B7 14                      tfr     b, d
68EF B7 17                      68EF B7 17                      tfr     b, sp
68F1 B7 15                      68F1 B7 15                      tfr     b, x
68F3 B7 16                      68F3 B7 16                      tfr     b, y
68F5 B7 20                      68F5 B7 20                      tfr     ccr, a
68F7 B7 21                      68F7 B7 21                      tfr     ccr, b
68F9 B7 22                      68F9 B7 22                      tfr     ccr, ccr
68FB B7 24                      68FB B7 24                      tfr     ccr, d
68FD B7 27                      68FD B7 27                      tfr     ccr, sp
68FF B7 25                      68FF B7 25                      tfr     ccr, x
6901 B7 26                      6901 B7 26                      tfr     ccr, y
6903 B7 40                      6903 B7 40                      tfr     d, a
6905 B7 41                      6905 B7 41                      tfr     d, b
6907 B7 42                      6907 B7 42                      tfr     d, ccr
6909 B7 44                      6909 B7 44                      tfr     d, d
690B B7 47                      690B B7 47                      tfr     d, sp
690D B7 45                      690D B7 45                      tfr     d, x
690F B7 46                      690F B7 46                      tfr     d, y
6911 B7 70                      6911 B7 70                      tfr     sp, a
6913 B7 71                      6913 B7 71                      tfr     sp, b
6915 B7 72                      6915 B7 72                      tfr     sp, ccr
6917 B7 74                      6917 B7 74                      tfr     sp, d
6919 B7 77                      6919 B7 77                      tfr     sp, sp
691B B7 75                      691B B7 75                      tfr     sp, x
691D B7 76                      691D B7 76                      tfr     sp, y
691F B7 50                      691F B7 50                      tfr     x, a
6921 B7 51                      6921 B7 51                      tfr     x, b
6923 B7 52                      6923 B7 52                      tfr     x, ccr
6925 B7 54                      6925 B7 54                      tfr     x, d
6927 B7 57                      6927 B7 57                      tfr     x, sp
6929 B7 55                      6929 B7 55                      tfr     x, x
692B B7 56                      692B B7 56                      tfr     x, y
692D B7 60                      692D B7 60                      tfr     y, a
692F B7 61                      692F B7 61                      tfr     y, b
6931 B7 62                      6931 B7 62                      tfr     y, ccr
6933 B7 64                      6933 B7 64                      tfr     y, d
6935 B7 67                      6935 B7 67                      tfr     y, sp
6937 B7 65                      6937 B7 65                      tfr     y, x
6939 B7 66                      6939 B7 66                      tfr     y, y
693B B7 20                      693B B7 20                      tpa
693D E7 A0                      693D E7 A0                      tst     1,+sp
693F E7 20                      693F E7 20                      tst     1,+x
6941 E7 60                      6941 E7 60                      tst     1,+y
6943 E7 A7                      6943 E7 A7                      tst     8,+sp
6945 E7 27                      6945 E7 27                      tst     8,+x
6947 E7 67                      6947 E7 67                      tst     8,+y
6949 E7 C0                      6949 E7 C0                      tst     ,pc
694B E7 80                      694B E7 80                      tst     ,sp
694D E7 00                      694D E7 00                      tst     ,x
694F E7 40                      694F E7 40                      tst     ,y
6951 E7 AF                      6951 E7 AF                      tst     1,-sp
6953 E7 2F                      6953 E7 2F                      tst     1,-x
6955 E7 6F                      6955 E7 6F                      tst     1,-y
6957 E7 A8                      6957 E7 A8                      tst     8,-sp
6959 E7 28                      6959 E7 28                      tst     8,-x
695B E7 68                      695B E7 68                      tst     8,-y
695D E7 9F                      695D E7 9F                      tst     -1,sp
695F E7 1F                      695F E7 1F                      tst     -1,x
6961 E7 5F                      6961 E7 5F                      tst     -1,y
6963 E7 90                      6963 E7 90                      tst     -16,sp
6965 E7 10                      6965 E7 10                      tst     -16,x
6967 E7 50                      6967 E7 50                      tst     -16,y
6969 E7 F1 EF                   6969 E7 F1 EF                   tst     -17,sp
696C E7 E1 EF                   696C E7 E1 EF                   tst     -17,x
696F E7 E9 EF                   696F E7 E9 EF                   tst     -17,y
6972 E7 D2                      6972 E7 D2                      tst     -small,pc
6974 E7 92                      6974 E7 92                      tst     -small,sp
6976 E7 12                      6976 E7 12                      tst     -small,x
6978 E7 52                      6978 E7 52                      tst     -small,y
697A E7 C0                      697A E7 C0                      tst     0,pc
697C E7 80                      697C E7 80                      tst     0,sp
697E E7 00                      697E E7 00                      tst     0,x
6980 E7 40                      6980 E7 40                      tst     0,y
6982 E7 B0                      6982 E7 B0                      tst     1,sp+
6984 E7 30                      6984 E7 30                      tst     1,x+
6986 E7 70                      6986 E7 70                      tst     1,y+
6988 E7 81                      6988 E7 81                      tst     1,sp
698A E7 01                      698A E7 01                      tst     1,x
698C E7 41                      698C E7 41                      tst     1,y
698E E7 BF                      698E E7 BF                      tst     1,sp-
6990 E7 3F                      6990 E7 3F                      tst     1,x-
6992 E7 7F                      6992 E7 7F                      tst     1,y-
6994 E7 F8 7D                   6994 E7 F8 7D                   tst     125,pc
6997 E7 F0 7D                   6997 E7 F0 7D                   tst     125,sp
699A E7 E0 7D                   699A E7 E0 7D                   tst     125,x
699D E7 E8 7D                   699D E7 E8 7D                   tst     125,y
69A0 E7 8F                      69A0 E7 8F                      tst     15,sp
69A2 E7 0F                      69A2 E7 0F                      tst     15,x
69A4 E7 4F                      69A4 E7 4F                      tst     15,y
69A6 E7 F0 10                   69A6 E7 F0 10                   tst     16,sp
69A9 E7 E0 10                   69A9 E7 E0 10                   tst     16,x
69AC E7 E8 10                   69AC E7 E8 10                   tst     16,y
69AF E7 B7                      69AF E7 B7                      tst     8,sp+
69B1 E7 37                      69B1 E7 37                      tst     8,x+
69B3 E7 77                      69B3 E7 77                      tst     8,y+
69B5 E7 B8                      69B5 E7 B8                      tst     8,sp-
69B7 E7 38                      69B7 E7 38                      tst     8,x-
69B9 E7 78                      69B9 E7 78                      tst     8,y-
69BB E7 F4                      69BB E7 F4                      tst     a,sp
69BD E7 E4                      69BD E7 E4                      tst     a,x
69BF E7 EC                      69BF E7 EC                      tst     a,y
69C1 E7 F5                      69C1 E7 F5                      tst     b,sp
69C3 E7 E5                      69C3 E7 E5                      tst     b,x
69C5 E7 ED                      69C5 E7 ED                      tst     b,y
69C7 E7 F6                      69C7 E7 F6                      tst     d,sp
69C9 E7 E6                      69C9 E7 E6                      tst     d,x
69CB E7 EE                      69CB E7 EE                      tst     d,y
69CD F7 00 55                   69CD F7 00 55                   tst     dir
69D0 F7 12 34                   69D0 F7 12 34                   tst     ext
69D3 F7 12 34                   69D3 F7 12 34                   tst     ext
69D6 E7 F2 12 34                69D6 E7 F2 12 34                tst     ext,sp
69DA E7 E2 12 34                69DA E7 E2 12 34                tst     ext,x
69DE E7 EA 12 34                69DE E7 EA 12 34                tst     ext,y
69E2 E7 F8 37                   69E2 E7 F8 37                   tst     ind,pc
69E5 E7 F0 37                   69E5 E7 F0 37                   tst     ind,sp
69E8 E7 E0 37                   69E8 E7 E0 37                   tst     ind,x
69EB E7 E8 37                   69EB E7 E8 37                   tst     ind,y
69EE E7 CE                      69EE E7 CE                      tst     small,pc
69F0 E7 8E                      69F0 E7 8E                      tst     small,sp
69F2 E7 0E                      69F2 E7 0E                      tst     small,x
69F4 E7 4E                      69F4 E7 4E                      tst     small,y
69F6 97                         69F6 97                         tsta
69F7 D7                         69F7 D7                         tstb
69F8 B7 75                      69F8 B7 75                      tsx
69FA B7 76                      69FA B7 76                      tsy
69FC B7 57                      69FC B7 57                      txs
69FE B7 67                      69FE B7 67                      tys
6A00 3E                         6A00 3E                         wai
6A01 18 3C                      6A01 18 3C                      wav
6A03 B7 C5                      6A03 B7 C5                      xgdx
6A05 B7 C6                      6A05 B7 C6                      xgdy
6A07 4B A0 55                   6A07 4B A0 55                   call    1,+sp, $55
6A0A 4B 20 55                   6A0A 4B 20 55                   call    1,+x, $55
6A0D 4B 60 55                   6A0D 4B 60 55                   call    1,+y, $55
6A10 4B A7 55                   6A10 4B A7 55                   call    8,+sp, $55
6A13 4B 27 55                   6A13 4B 27 55                   call    8,+x, $55
6A16 4B 67 55                   6A16 4B 67 55                   call    8,+y, $55
6A19 4B C0 55                   6A19 4B C0 55                   call    ,pc, $55
6A1C 4B 80 55                   6A1C 4B 80 55                   call    ,sp, $55
6A1F 4B 00 55                   6A1F 4B 00 55                   call    ,x, $55
6A22 4B 40 55                   6A22 4B 40 55                   call    ,y, $55
6A25 4B AF 55                   6A25 4B AF 55                   call    1,-sp, $55
6A28 4B 2F 55                   6A28 4B 2F 55                   call    1,-x, $55
6A2B 4B 6F 55                   6A2B 4B 6F 55                   call    1,-y, $55
6A2E 4B A8 55                   6A2E 4B A8 55                   call    8,-sp, $55
6A31 4B 28 55                   6A31 4B 28 55                   call    8,-x, $55
6A34 4B 68 55                   6A34 4B 68 55                   call    8,-y, $55
6A37 4B 9F 55                   6A37 4B 9F 55                   call    -1,sp, $55
6A3A 4B 1F 55                   6A3A 4B 1F 55                   call    -1,x, $55
6A3D 4B 5F 55                   6A3D 4B 5F 55                   call    -1,y, $55
6A40 4B 90 55                   6A40 4B 90 55                   call    -16,sp, $55
6A43 4B 10 55                   6A43 4B 10 55                   call    -16,x, $55
6A46 4B 50 55                   6A46 4B 50 55                   call    -16,y, $55
6A49 4B F1 EF 55                6A49 4B F1 EF 55                call    -17,sp, $55
6A4D 4B E1 EF 55                6A4D 4B E1 EF 55                call    -17,x, $55
6A51 4B E9 EF 55                6A51 4B E9 EF 55                call    -17,y, $55
6A55 4B D2 55                   6A55 4B D2 55                   call    -small,pc, $55
6A58 4B 92 55                   6A58 4B 92 55                   call    -small,sp, $55
6A5B 4B 12 55                   6A5B 4B 12 55                   call    -small,x, $55
6A5E 4B 52 55                   6A5E 4B 52 55                   call    -small,y, $55
6A61 4B C0 55                   6A61 4B C0 55                   call    0,pc, $55
6A64 4B 80 55                   6A64 4B 80 55                   call    0,sp, $55
6A67 4B 00 55                   6A67 4B 00 55                   call    0,x, $55
6A6A 4B 40 55                   6A6A 4B 40 55                   call    0,y, $55
6A6D 4B B0 55                   6A6D 4B B0 55                   call    1,sp+, $55
6A70 4B 30 55                   6A70 4B 30 55                   call    1,x+, $55
6A73 4B 70 55                   6A73 4B 70 55                   call    1,y+, $55
6A76 4B 81 55                   6A76 4B 81 55                   call    1,sp, $55
6A79 4B 01 55                   6A79 4B 01 55                   call    1,x, $55
6A7C 4B 41 55                   6A7C 4B 41 55                   call    1,y, $55
6A7F 4B BF 55                   6A7F 4B BF 55                   call    1,sp-, $55
6A82 4B 3F 55                   6A82 4B 3F 55                   call    1,x-, $55
6A85 4B 7F 55                   6A85 4B 7F 55                   call    1,y-, $55
6A88 4B F8 7D 55                6A88 4B F8 7D 55                call    125,pc, $55
6A8C 4B F0 7D 55                6A8C 4B F0 7D 55                call    125,sp, $55
6A90 4B E0 7D 55                6A90 4B E0 7D 55                call    125,x, $55
6A94 4B E8 7D 55                6A94 4B E8 7D 55                call    125,y, $55
6A98 4B 8F 55                   6A98 4B 8F 55                   call    15,sp, $55
6A9B 4B 0F 55                   6A9B 4B 0F 55                   call    15,x, $55
6A9E 4B 4F 55                   6A9E 4B 4F 55                   call    15,y, $55
6AA1 4B F0 10 55                6AA1 4B F0 10 55                call    16,sp, $55
6AA5 4B E0 10 55                6AA5 4B E0 10 55                call    16,x, $55
6AA9 4B E8 10 55                6AA9 4B E8 10 55                call    16,y, $55
6AAD 4B B7 55                   6AAD 4B B7 55                   call    8,sp+, $55
6AB0 4B 37 55                   6AB0 4B 37 55                   call    8,x+, $55
6AB3 4B 77 55                   6AB3 4B 77 55                   call    8,y+, $55
6AB6 4B B8 55                   6AB6 4B B8 55                   call    8,sp-, $55
6AB9 4B 38 55                   6AB9 4B 38 55                   call    8,x-, $55
6ABC 4B 78 55                   6ABC 4B 78 55                   call    8,y-, $55
6ABF 4B F4 55                   6ABF 4B F4 55                   call    a,sp, $55
6AC2 4B E4 55                   6AC2 4B E4 55                   call    a,x, $55
6AC5 4B EC 55                   6AC5 4B EC 55                   call    a,y, $55
6AC8 4B F5 55                   6AC8 4B F5 55                   call    b,sp, $55
6ACB 4B E5 55                   6ACB 4B E5 55                   call    b,x, $55
6ACE 4B ED 55                   6ACE 4B ED 55                   call    b,y, $55
6AD1 4B F6 55                   6AD1 4B F6 55                   call    d,sp, $55
6AD4 4B E6 55                   6AD4 4B E6 55                   call    d,x, $55
6AD7 4B EE 55                   6AD7 4B EE 55                   call    d,y, $55
6ADA 4A 00 55 55                6ADA 4A 00 55 55                call    dir, $55
6ADE 4A 12 34 55                6ADE 4A 12 34 55                call    ext, $55
6AE2 4B F2 12 34 55             6AE2 4B F2 12 34 55             call    ext,sp, $55
6AE7 4B E2 12 34 55             6AE7 4B E2 12 34 55             call    ext,x, $55
6AEC 4B EA 12 34 55             6AEC 4B EA 12 34 55             call    ext,y, $55
6AF1 4B F8 37 55                6AF1 4B F8 37 55                call    ind,pc, $55
6AF5 4B F0 37 55                6AF5 4B F0 37 55                call    ind,sp, $55
6AF9 4B E0 37 55                6AF9 4B E0 37 55                call    ind,x, $55
6AFD 4B E8 37 55                6AFD 4B E8 37 55                call    ind,y, $55
6B01 4B CE 55                   6B01 4B CE 55                   call    small,pc, $55
6B04 4B 8E 55                   6B04 4B 8E 55                   call    small,sp, $55
6B07 4B 0E 55                   6B07 4B 0E 55                   call    small,x, $55
6B0A 4B 4E 55                   6B0A 4B 4E 55                   call    small,y, $55
6B0D 39                         6B0D 39                         pshc
6B0E 0A                         6B0E 0A                         rtc
6B0F 18 08 22 72                6B0F 18 08 22 72                movb    #immed, 3,+x
6B13 18 08 6B 72                6B13 18 08 6B 72                movb    #immed, 5,-y
6B17 18 08 85 72                6B17 18 08 85 72                movb    #immed, 5,sp
6B1B 18 0B 72 12 34             6B1B 18 0B 72 12 34             movb    #immed, ext
6B20 18 0A A0 22                6B20 18 0A A0 22                movb    1,+sp, 3,+x
6B24 18 0A A0 6B                6B24 18 0A A0 6B                movb    1,+sp, 5,-y
6B28 18 0A A0 85                6B28 18 0A A0 85                movb    1,+sp, 5,sp
6B2C 18 0D A0 12 34             6B2C 18 0D A0 12 34             movb    1,+sp, ext
6B31 18 0A 20 22                6B31 18 0A 20 22                movb    1,+x, 3,+x
6B35 18 0A 20 6B                6B35 18 0A 20 6B                movb    1,+x, 5,-y
6B39 18 0A 20 85                6B39 18 0A 20 85                movb    1,+x, 5,sp
6B3D 18 0D 20 12 34             6B3D 18 0D 20 12 34             movb    1,+x, ext
6B42 18 0A 60 22                6B42 18 0A 60 22                movb    1,+y, 3,+x
6B46 18 0A 60 6B                6B46 18 0A 60 6B                movb    1,+y, 5,-y
6B4A 18 0A 60 85                6B4A 18 0A 60 85                movb    1,+y, 5,sp
6B4E 18 0D 60 12 34             6B4E 18 0D 60 12 34             movb    1,+y, ext
6B53 18 0A 22 A0                6B53 18 0A 22 A0                movb    3,+x, 1,+sp
6B57 18 0A 22 20                6B57 18 0A 22 20                movb    3,+x, 1,+x
6B5B 18 0A 22 60                6B5B 18 0A 22 60                movb    3,+x, 1,+y
6B5F 18 0A 22 A7                6B5F 18 0A 22 A7                movb    3,+x, 8,+sp
6B63 18 0A 22 27                6B63 18 0A 22 27                movb    3,+x, 8,+x
6B67 18 0A 22 67                6B67 18 0A 22 67                movb    3,+x, 8,+y
6B6B 18 0A 22 C0                6B6B 18 0A 22 C0                movb    3,+x, ,pc
6B6F 18 0A 22 80                6B6F 18 0A 22 80                movb    3,+x, ,sp
6B73 18 0A 22 00                6B73 18 0A 22 00                movb    3,+x, ,x
6B77 18 0A 22 40                6B77 18 0A 22 40                movb    3,+x, ,y
6B7B 18 0A 22 AF                6B7B 18 0A 22 AF                movb    3,+x, 1,-sp
6B7F 18 0A 22 2F                6B7F 18 0A 22 2F                movb    3,+x, 1,-x
6B83 18 0A 22 6F                6B83 18 0A 22 6F                movb    3,+x, 1,-y
6B87 18 0A 22 A8                6B87 18 0A 22 A8                movb    3,+x, 8,-sp
6B8B 18 0A 22 28                6B8B 18 0A 22 28                movb    3,+x, 8,-x
6B8F 18 0A 22 68                6B8F 18 0A 22 68                movb    3,+x, 8,-y
6B93 18 0A 22 9F                6B93 18 0A 22 9F                movb    3,+x, -1,sp
6B97 18 0A 22 1F                6B97 18 0A 22 1F                movb    3,+x, -1,x
6B9B 18 0A 22 5F                6B9B 18 0A 22 5F                movb    3,+x, -1,y
6B9F 18 0A 22 90                6B9F 18 0A 22 90                movb    3,+x, -16,sp
6BA3 18 0A 22 10                6BA3 18 0A 22 10                movb    3,+x, -16,x
6BA7 18 0A 22 50                6BA7 18 0A 22 50                movb    3,+x, -16,y
6BAB 18 0A 22 D2                6BAB 18 0A 22 D2                movb    3,+x, -small,pc
6BAF 18 0A 22 92                6BAF 18 0A 22 92                movb    3,+x, -small,sp
6BB3 18 0A 22 12                6BB3 18 0A 22 12                movb    3,+x, -small,x
6BB7 18 0A 22 52                6BB7 18 0A 22 52                movb    3,+x, -small,y
6BBB 18 0A 22 C0                6BBB 18 0A 22 C0                movb    3,+x, 0,pc
6BBF 18 0A 22 80                6BBF 18 0A 22 80                movb    3,+x, 0,sp
6BC3 18 0A 22 00                6BC3 18 0A 22 00                movb    3,+x, 0,x
6BC7 18 0A 22 40                6BC7 18 0A 22 40                movb    3,+x, 0,y
6BCB 18 0A 22 B0                6BCB 18 0A 22 B0                movb    3,+x, 1,sp+
6BCF 18 0A 22 30                6BCF 18 0A 22 30                movb    3,+x, 1,x+
6BD3 18 0A 22 70                6BD3 18 0A 22 70                movb    3,+x, 1,y+
6BD7 18 0A 22 81                6BD7 18 0A 22 81                movb    3,+x, 1,sp
6BDB 18 0A 22 01                6BDB 18 0A 22 01                movb    3,+x, 1,x
6BDF 18 0A 22 41                6BDF 18 0A 22 41                movb    3,+x, 1,y
6BE3 18 0A 22 BF                6BE3 18 0A 22 BF                movb    3,+x, 1,sp-
6BE7 18 0A 22 3F                6BE7 18 0A 22 3F                movb    3,+x, 1,x-
6BEB 18 0A 22 7F                6BEB 18 0A 22 7F                movb    3,+x, 1,y-
6BEF 18 0A 22 8F                6BEF 18 0A 22 8F                movb    3,+x, 15,sp
6BF3 18 0A 22 0F                6BF3 18 0A 22 0F                movb    3,+x, 15,x
6BF7 18 0A 22 4F                6BF7 18 0A 22 4F                movb    3,+x, 15,y
6BFB 18 0A 22 B7                6BFB 18 0A 22 B7                movb    3,+x, 8,sp+
6BFF 18 0A 22 37                6BFF 18 0A 22 37                movb    3,+x, 8,x+
6C03 18 0A 22 77                6C03 18 0A 22 77                movb    3,+x, 8,y+
6C07 18 0A 22 B8                6C07 18 0A 22 B8                movb    3,+x, 8,sp-
6C0B 18 0A 22 38                6C0B 18 0A 22 38                movb    3,+x, 8,x-
6C0F 18 0A 22 78                6C0F 18 0A 22 78                movb    3,+x, 8,y-
6C13 18 0A 22 F4                6C13 18 0A 22 F4                movb    3,+x, a,sp
6C17 18 0A 22 E4                6C17 18 0A 22 E4                movb    3,+x, a,x
6C1B 18 0A 22 EC                6C1B 18 0A 22 EC                movb    3,+x, a,y
6C1F 18 0A 22 F5                6C1F 18 0A 22 F5                movb    3,+x, b,sp
6C23 18 0A 22 E5                6C23 18 0A 22 E5                movb    3,+x, b,x
6C27 18 0A 22 ED                6C27 18 0A 22 ED                movb    3,+x, b,y
6C2B 18 0A 22 F6                6C2B 18 0A 22 F6                movb    3,+x, d,sp
6C2F 18 0A 22 E6                6C2F 18 0A 22 E6                movb    3,+x, d,x
6C33 18 0A 22 EE                6C33 18 0A 22 EE                movb    3,+x, d,y
6C37 18 0D 22 12 34             6C37 18 0D 22 12 34             movb    3,+x, ext
6C3C 18 0A 22 CE                6C3C 18 0A 22 CE                movb    3,+x, small,pc
6C40 18 0A 22 8E                6C40 18 0A 22 8E                movb    3,+x, small,sp
6C44 18 0A 22 0E                6C44 18 0A 22 0E                movb    3,+x, small,x
6C48 18 0A 22 4E                6C48 18 0A 22 4E                movb    3,+x, small,y
6C4C 18 0A A7 22                6C4C 18 0A A7 22                movb    8,+sp, 3,+x
6C50 18 0A A7 6B                6C50 18 0A A7 6B                movb    8,+sp, 5,-y
6C54 18 0A A7 85                6C54 18 0A A7 85                movb    8,+sp, 5,sp
6C58 18 0D A7 12 34             6C58 18 0D A7 12 34             movb    8,+sp, ext
6C5D 18 0A 27 22                6C5D 18 0A 27 22                movb    8,+x, 3,+x
6C61 18 0A 27 6B                6C61 18 0A 27 6B                movb    8,+x, 5,-y
6C65 18 0A 27 85                6C65 18 0A 27 85                movb    8,+x, 5,sp
6C69 18 0D 27 12 34             6C69 18 0D 27 12 34             movb    8,+x, ext
6C6E 18 0A 67 22                6C6E 18 0A 67 22                movb    8,+y, 3,+x
6C72 18 0A 67 6B                6C72 18 0A 67 6B                movb    8,+y, 5,-y
6C76 18 0A 67 85                6C76 18 0A 67 85                movb    8,+y, 5,sp
6C7A 18 0D 67 12 34             6C7A 18 0D 67 12 34             movb    8,+y, ext
6C7F 18 0A C0 22                6C7F 18 0A C0 22                movb    ,pc, 3,+x
6C83 18 0A C0 6B                6C83 18 0A C0 6B                movb    ,pc, 5,-y
6C87 18 0A C0 85                6C87 18 0A C0 85                movb    ,pc, 5,sp
6C8B 18 09 C0 00 00          |  6C8B 18 0D C0 12 34             movb    ,pc, ext
6C90 18 0A 80 22                6C90 18 0A 80 22                movb    ,sp, 3,+x
6C94 18 0A 80 6B                6C94 18 0A 80 6B                movb    ,sp, 5,-y
6C98 18 0A 80 85                6C98 18 0A 80 85                movb    ,sp, 5,sp
6C9C 18 09 80 00 00          |  6C9C 18 0D 80 12 34             movb    ,sp, ext
6CA1 18 0A 00 22                6CA1 18 0A 00 22                movb    ,x, 3,+x
6CA5 18 0A 00 6B                6CA5 18 0A 00 6B                movb    ,x, 5,-y
6CA9 18 0A 00 85                6CA9 18 0A 00 85                movb    ,x, 5,sp
6CAD 18 09 00 00 00          |  6CAD 18 0D 00 12 34             movb    ,x, ext
6CB2 18 0A 40 22                6CB2 18 0A 40 22                movb    ,y, 3,+x
6CB6 18 0A 40 6B                6CB6 18 0A 40 6B                movb    ,y, 5,-y
6CBA 18 0A 40 85                6CBA 18 0A 40 85                movb    ,y, 5,sp
6CBE 18 09 40 00 00          |  6CBE 18 0D 40 12 34             movb    ,y, ext
6CC3 18 0A AF 22                6CC3 18 0A AF 22                movb    1,-sp, 3,+x
6CC7 18 0A AF 6B                6CC7 18 0A AF 6B                movb    1,-sp, 5,-y
6CCB 18 0A AF 85                6CCB 18 0A AF 85                movb    1,-sp, 5,sp
6CCF 18 0D AF 12 34             6CCF 18 0D AF 12 34             movb    1,-sp, ext
6CD4 18 0A 2F 22                6CD4 18 0A 2F 22                movb    1,-x, 3,+x
6CD8 18 0A 2F 6B                6CD8 18 0A 2F 6B                movb    1,-x, 5,-y
6CDC 18 0A 2F 85                6CDC 18 0A 2F 85                movb    1,-x, 5,sp
6CE0 18 0D 2F 12 34             6CE0 18 0D 2F 12 34             movb    1,-x, ext
6CE5 18 0A 6F 22                6CE5 18 0A 6F 22                movb    1,-y, 3,+x
6CE9 18 0A 6F 6B                6CE9 18 0A 6F 6B                movb    1,-y, 5,-y
6CED 18 0A 6F 85                6CED 18 0A 6F 85                movb    1,-y, 5,sp
6CF1 18 0D 6F 12 34             6CF1 18 0D 6F 12 34             movb    1,-y, ext
6CF6 18 0A A8 22                6CF6 18 0A A8 22                movb    8,-sp, 3,+x
6CFA 18 0A A8 6B                6CFA 18 0A A8 6B                movb    8,-sp, 5,-y
6CFE 18 0A A8 85                6CFE 18 0A A8 85                movb    8,-sp, 5,sp
6D02 18 0D A8 12 34             6D02 18 0D A8 12 34             movb    8,-sp, ext
6D07 18 0A 28 22                6D07 18 0A 28 22                movb    8,-x, 3,+x
6D0B 18 0A 28 6B                6D0B 18 0A 28 6B                movb    8,-x, 5,-y
6D0F 18 0A 28 85                6D0F 18 0A 28 85                movb    8,-x, 5,sp
6D13 18 0D 28 12 34             6D13 18 0D 28 12 34             movb    8,-x, ext
6D18 18 0A 68 22                6D18 18 0A 68 22                movb    8,-y, 3,+x
6D1C 18 0A 68 6B                6D1C 18 0A 68 6B                movb    8,-y, 5,-y
6D20 18 0A 68 85                6D20 18 0A 68 85                movb    8,-y, 5,sp
6D24 18 0D 68 12 34             6D24 18 0D 68 12 34             movb    8,-y, ext
6D29 18 0A 9F 22                6D29 18 0A 9F 22                movb    -1,sp, 3,+x
6D2D 18 0A 9F 6B                6D2D 18 0A 9F 6B                movb    -1,sp, 5,-y
6D31 18 0A 9F 85                6D31 18 0A 9F 85                movb    -1,sp, 5,sp
6D35 18 0D 9F 12 34             6D35 18 0D 9F 12 34             movb    -1,sp, ext
6D3A 18 0A 1F 22                6D3A 18 0A 1F 22                movb    -1,x, 3,+x
6D3E 18 0A 1F 6B                6D3E 18 0A 1F 6B                movb    -1,x, 5,-y
6D42 18 0A 1F 85                6D42 18 0A 1F 85                movb    -1,x, 5,sp
6D46 18 0D 1F 12 34             6D46 18 0D 1F 12 34             movb    -1,x, ext
6D4B 18 0A 5F 22                6D4B 18 0A 5F 22                movb    -1,y, 3,+x
6D4F 18 0A 5F 6B                6D4F 18 0A 5F 6B                movb    -1,y, 5,-y
6D53 18 0A 5F 85                6D53 18 0A 5F 85                movb    -1,y, 5,sp
6D57 18 0D 5F 12 34             6D57 18 0D 5F 12 34             movb    -1,y, ext
6D5C 18 0A 90 22                6D5C 18 0A 90 22                movb    -16,sp, 3,+x
6D60 18 0A 90 6B                6D60 18 0A 90 6B                movb    -16,sp, 5,-y
6D64 18 0A 90 85                6D64 18 0A 90 85                movb    -16,sp, 5,sp
6D68 18 0D 90 12 34             6D68 18 0D 90 12 34             movb    -16,sp, ext
6D6D 18 0A 10 22                6D6D 18 0A 10 22                movb    -16,x, 3,+x
6D71 18 0A 10 6B                6D71 18 0A 10 6B                movb    -16,x, 5,-y
6D75 18 0A 10 85                6D75 18 0A 10 85                movb    -16,x, 5,sp
6D79 18 0D 10 12 34             6D79 18 0D 10 12 34             movb    -16,x, ext
6D7E 18 0A 50 22                6D7E 18 0A 50 22                movb    -16,y, 3,+x
6D82 18 0A 50 6B                6D82 18 0A 50 6B                movb    -16,y, 5,-y
6D86 18 0A 50 85                6D86 18 0A 50 85                movb    -16,y, 5,sp
6D8A 18 0D 50 12 34             6D8A 18 0D 50 12 34             movb    -16,y, ext
6D8F 18 0A D2 22                6D8F 18 0A D2 22                movb    -small,pc, 3,+x
6D93 18 0A D2 6B                6D93 18 0A D2 6B                movb    -small,pc, 5,-y
6D97 18 0A D2 85                6D97 18 0A D2 85                movb    -small,pc, 5,sp
6D9B 18 0D D2 12 34             6D9B 18 0D D2 12 34             movb    -small,pc, ext
6DA0 18 0A 92 22                6DA0 18 0A 92 22                movb    -small,sp, 3,+x
6DA4 18 0A 92 6B                6DA4 18 0A 92 6B                movb    -small,sp, 5,-y
6DA8 18 0A 92 85                6DA8 18 0A 92 85                movb    -small,sp, 5,sp
6DAC 18 0D 92 12 34             6DAC 18 0D 92 12 34             movb    -small,sp, ext
6DB1 18 0A 12 22                6DB1 18 0A 12 22                movb    -small,x, 3,+x
6DB5 18 0A 12 6B                6DB5 18 0A 12 6B                movb    -small,x, 5,-y
6DB9 18 0A 12 85                6DB9 18 0A 12 85                movb    -small,x, 5,sp
6DBD 18 0D 12 12 34             6DBD 18 0D 12 12 34             movb    -small,x, ext
6DC2 18 0A 52 22                6DC2 18 0A 52 22                movb    -small,y, 3,+x
6DC6 18 0A 52 6B                6DC6 18 0A 52 6B                movb    -small,y, 5,-y
6DCA 18 0A 52 85                6DCA 18 0A 52 85                movb    -small,y, 5,sp
6DCE 18 0D 52 12 34             6DCE 18 0D 52 12 34             movb    -small,y, ext
6DD3 18 0A C0 22                6DD3 18 0A C0 22                movb    0,pc, 3,+x
6DD7 18 0A C0 6B                6DD7 18 0A C0 6B                movb    0,pc, 5,-y
6DDB 18 0A C0 85                6DDB 18 0A C0 85                movb    0,pc, 5,sp
6DDF 18 0D C0 12 34             6DDF 18 0D C0 12 34             movb    0,pc, ext
6DE4 18 0A 80 22                6DE4 18 0A 80 22                movb    0,sp, 3,+x
6DE8 18 0A 80 6B                6DE8 18 0A 80 6B                movb    0,sp, 5,-y
6DEC 18 0A 80 85                6DEC 18 0A 80 85                movb    0,sp, 5,sp
6DF0 18 0D 80 12 34             6DF0 18 0D 80 12 34             movb    0,sp, ext
6DF5 18 0A 00 22                6DF5 18 0A 00 22                movb    0,x, 3,+x
6DF9 18 0A 00 6B                6DF9 18 0A 00 6B                movb    0,x, 5,-y
6DFD 18 0A 00 85                6DFD 18 0A 00 85                movb    0,x, 5,sp
6E01 18 0D 00 12 34             6E01 18 0D 00 12 34             movb    0,x, ext
6E06 18 0A 40 22                6E06 18 0A 40 22                movb    0,y, 3,+x
6E0A 18 0A 40 6B                6E0A 18 0A 40 6B                movb    0,y, 5,-y
6E0E 18 0A 40 85                6E0E 18 0A 40 85                movb    0,y, 5,sp
6E12 18 0D 40 12 34             6E12 18 0D 40 12 34             movb    0,y, ext
6E17 18 0A B0 22                6E17 18 0A B0 22                movb    1,sp+, 3,+x
6E1B 18 0A B0 6B                6E1B 18 0A B0 6B                movb    1,sp+, 5,-y
6E1F 18 0A B0 85                6E1F 18 0A B0 85                movb    1,sp+, 5,sp
6E23 18 0D B0 12 34             6E23 18 0D B0 12 34             movb    1,sp+, ext
6E28 18 0A 30 22                6E28 18 0A 30 22                movb    1,x+, 3,+x
6E2C 18 0A 30 6B                6E2C 18 0A 30 6B                movb    1,x+, 5,-y
6E30 18 0A 30 85                6E30 18 0A 30 85                movb    1,x+, 5,sp
6E34 18 0D 30 12 34             6E34 18 0D 30 12 34             movb    1,x+, ext
6E39 18 0A 70 22                6E39 18 0A 70 22                movb    1,y+, 3,+x
6E3D 18 0A 70 6B                6E3D 18 0A 70 6B                movb    1,y+, 5,-y
6E41 18 0A 70 85                6E41 18 0A 70 85                movb    1,y+, 5,sp
6E45 18 0D 70 12 34             6E45 18 0D 70 12 34             movb    1,y+, ext
6E4A 18 0A 81 22                6E4A 18 0A 81 22                movb    1,sp, 3,+x
6E4E 18 0A 81 6B                6E4E 18 0A 81 6B                movb    1,sp, 5,-y
6E52 18 0A 81 85                6E52 18 0A 81 85                movb    1,sp, 5,sp
6E56 18 0D 81 12 34             6E56 18 0D 81 12 34             movb    1,sp, ext
6E5B 18 0A 01 22                6E5B 18 0A 01 22                movb    1,x, 3,+x
6E5F 18 0A 01 6B                6E5F 18 0A 01 6B                movb    1,x, 5,-y
6E63 18 0A 01 85                6E63 18 0A 01 85                movb    1,x, 5,sp
6E67 18 0D 01 12 34             6E67 18 0D 01 12 34             movb    1,x, ext
6E6C 18 0A 41 22                6E6C 18 0A 41 22                movb    1,y, 3,+x
6E70 18 0A 41 6B                6E70 18 0A 41 6B                movb    1,y, 5,-y
6E74 18 0A 41 85                6E74 18 0A 41 85                movb    1,y, 5,sp
6E78 18 0D 41 12 34             6E78 18 0D 41 12 34             movb    1,y, ext
6E7D 18 0A BF 22                6E7D 18 0A BF 22                movb    1,sp-, 3,+x
6E81 18 0A BF 6B                6E81 18 0A BF 6B                movb    1,sp-, 5,-y
6E85 18 0A BF 85                6E85 18 0A BF 85                movb    1,sp-, 5,sp
6E89 18 0D BF 12 34             6E89 18 0D BF 12 34             movb    1,sp-, ext
6E8E 18 0A 3F 22                6E8E 18 0A 3F 22                movb    1,x-, 3,+x
6E92 18 0A 3F 6B                6E92 18 0A 3F 6B                movb    1,x-, 5,-y
6E96 18 0A 3F 85                6E96 18 0A 3F 85                movb    1,x-, 5,sp
6E9A 18 0D 3F 12 34             6E9A 18 0D 3F 12 34             movb    1,x-, ext
6E9F 18 0A 7F 22                6E9F 18 0A 7F 22                movb    1,y-, 3,+x
6EA3 18 0A 7F 6B                6EA3 18 0A 7F 6B                movb    1,y-, 5,-y
6EA7 18 0A 7F 85                6EA7 18 0A 7F 85                movb    1,y-, 5,sp
6EAB 18 0D 7F 12 34             6EAB 18 0D 7F 12 34             movb    1,y-, ext
6EB0 18 0A 6B A0                6EB0 18 0A 6B A0                movb    5,-y, 1,+sp
6EB4 18 0A 6B 20                6EB4 18 0A 6B 20                movb    5,-y, 1,+x
6EB8 18 0A 6B 60                6EB8 18 0A 6B 60                movb    5,-y, 1,+y
6EBC 18 0A 6B A7                6EBC 18 0A 6B A7                movb    5,-y, 8,+sp
6EC0 18 0A 6B 27                6EC0 18 0A 6B 27                movb    5,-y, 8,+x
6EC4 18 0A 6B 67                6EC4 18 0A 6B 67                movb    5,-y, 8,+y
6EC8 18 0A 6B C0                6EC8 18 0A 6B C0                movb    5,-y, ,pc
6ECC 18 0A 6B 80                6ECC 18 0A 6B 80                movb    5,-y, ,sp
6ED0 18 0A 6B 00                6ED0 18 0A 6B 00                movb    5,-y, ,x
6ED4 18 0A 6B 40                6ED4 18 0A 6B 40                movb    5,-y, ,y
6ED8 18 0A 6B AF                6ED8 18 0A 6B AF                movb    5,-y, 1,-sp
6EDC 18 0A 6B 2F                6EDC 18 0A 6B 2F                movb    5,-y, 1,-x
6EE0 18 0A 6B 6F                6EE0 18 0A 6B 6F                movb    5,-y, 1,-y
6EE4 18 0A 6B A8                6EE4 18 0A 6B A8                movb    5,-y, 8,-sp
6EE8 18 0A 6B 28                6EE8 18 0A 6B 28                movb    5,-y, 8,-x
6EEC 18 0A 6B 68                6EEC 18 0A 6B 68                movb    5,-y, 8,-y
6EF0 18 0A 6B 9F                6EF0 18 0A 6B 9F                movb    5,-y, -1,sp
6EF4 18 0A 6B 1F                6EF4 18 0A 6B 1F                movb    5,-y, -1,x
6EF8 18 0A 6B 5F                6EF8 18 0A 6B 5F                movb    5,-y, -1,y
6EFC 18 0A 6B 90                6EFC 18 0A 6B 90                movb    5,-y, -16,sp
6F00 18 0A 6B 10                6F00 18 0A 6B 10                movb    5,-y, -16,x
6F04 18 0A 6B 50                6F04 18 0A 6B 50                movb    5,-y, -16,y
6F08 18 0A 6B D2                6F08 18 0A 6B D2                movb    5,-y, -small,pc
6F0C 18 0A 6B 92                6F0C 18 0A 6B 92                movb    5,-y, -small,sp
6F10 18 0A 6B 12                6F10 18 0A 6B 12                movb    5,-y, -small,x
6F14 18 0A 6B 52                6F14 18 0A 6B 52                movb    5,-y, -small,y
6F18 18 0A 6B C0                6F18 18 0A 6B C0                movb    5,-y, 0,pc
6F1C 18 0A 6B 80                6F1C 18 0A 6B 80                movb    5,-y, 0,sp
6F20 18 0A 6B 00                6F20 18 0A 6B 00                movb    5,-y, 0,x
6F24 18 0A 6B 40                6F24 18 0A 6B 40                movb    5,-y, 0,y
6F28 18 0A 6B B0                6F28 18 0A 6B B0                movb    5,-y, 1,sp+
6F2C 18 0A 6B 30                6F2C 18 0A 6B 30                movb    5,-y, 1,x+
6F30 18 0A 6B 70                6F30 18 0A 6B 70                movb    5,-y, 1,y+
6F34 18 0A 6B 81                6F34 18 0A 6B 81                movb    5,-y, 1,sp
6F38 18 0A 6B 01                6F38 18 0A 6B 01                movb    5,-y, 1,x
6F3C 18 0A 6B 41                6F3C 18 0A 6B 41                movb    5,-y, 1,y
6F40 18 0A 6B BF                6F40 18 0A 6B BF                movb    5,-y, 1,sp-
6F44 18 0A 6B 3F                6F44 18 0A 6B 3F                movb    5,-y, 1,x-
6F48 18 0A 6B 7F                6F48 18 0A 6B 7F                movb    5,-y, 1,y-
6F4C 18 0A 6B 8F                6F4C 18 0A 6B 8F                movb    5,-y, 15,sp
6F50 18 0A 6B 0F                6F50 18 0A 6B 0F                movb    5,-y, 15,x
6F54 18 0A 6B 4F                6F54 18 0A 6B 4F                movb    5,-y, 15,y
6F58 18 0A 6B B7                6F58 18 0A 6B B7                movb    5,-y, 8,sp+
6F5C 18 0A 6B 37                6F5C 18 0A 6B 37                movb    5,-y, 8,x+
6F60 18 0A 6B 77                6F60 18 0A 6B 77                movb    5,-y, 8,y+
6F64 18 0A 6B B8                6F64 18 0A 6B B8                movb    5,-y, 8,sp-
6F68 18 0A 6B 38                6F68 18 0A 6B 38                movb    5,-y, 8,x-
6F6C 18 0A 6B 78                6F6C 18 0A 6B 78                movb    5,-y, 8,y-
6F70 18 0A 6B F4                6F70 18 0A 6B F4                movb    5,-y, a,sp
6F74 18 0A 6B E4                6F74 18 0A 6B E4                movb    5,-y, a,x
6F78 18 0A 6B EC                6F78 18 0A 6B EC                movb    5,-y, a,y
6F7C 18 0A 6B F5                6F7C 18 0A 6B F5                movb    5,-y, b,sp
6F80 18 0A 6B E5                6F80 18 0A 6B E5                movb    5,-y, b,x
6F84 18 0A 6B ED                6F84 18 0A 6B ED                movb    5,-y, b,y
6F88 18 0A 6B F6                6F88 18 0A 6B F6                movb    5,-y, d,sp
6F8C 18 0A 6B E6                6F8C 18 0A 6B E6                movb    5,-y, d,x
6F90 18 0A 6B EE                6F90 18 0A 6B EE                movb    5,-y, d,y
6F94 18 0D 6B 12 34             6F94 18 0D 6B 12 34             movb    5,-y, ext
6F99 18 0A 6B CE                6F99 18 0A 6B CE                movb    5,-y, small,pc
6F9D 18 0A 6B 8E                6F9D 18 0A 6B 8E                movb    5,-y, small,sp
6FA1 18 0A 6B 0E                6FA1 18 0A 6B 0E                movb    5,-y, small,x
6FA5 18 0A 6B 4E                6FA5 18 0A 6B 4E                movb    5,-y, small,y
6FA9 18 0A 8F 22                6FA9 18 0A 8F 22                movb    15,sp, 3,+x
6FAD 18 0A 8F 6B                6FAD 18 0A 8F 6B                movb    15,sp, 5,-y
6FB1 18 0A 8F 85                6FB1 18 0A 8F 85                movb    15,sp, 5,sp
6FB5 18 0D 8F 12 34             6FB5 18 0D 8F 12 34             movb    15,sp, ext
6FBA 18 0A 0F 22                6FBA 18 0A 0F 22                movb    15,x, 3,+x
6FBE 18 0A 0F 6B                6FBE 18 0A 0F 6B                movb    15,x, 5,-y
6FC2 18 0A 0F 85                6FC2 18 0A 0F 85                movb    15,x, 5,sp
6FC6 18 0D 0F 12 34             6FC6 18 0D 0F 12 34             movb    15,x, ext
6FCB 18 0A 4F 22                6FCB 18 0A 4F 22                movb    15,y, 3,+x
6FCF 18 0A 4F 6B                6FCF 18 0A 4F 6B                movb    15,y, 5,-y
6FD3 18 0A 4F 85                6FD3 18 0A 4F 85                movb    15,y, 5,sp
6FD7 18 0D 4F 12 34             6FD7 18 0D 4F 12 34             movb    15,y, ext
6FDC 18 0A 85 A0                6FDC 18 0A 85 A0                movb    5,sp, 1,+sp
6FE0 18 0A 85 20                6FE0 18 0A 85 20                movb    5,sp, 1,+x
6FE4 18 0A 85 60                6FE4 18 0A 85 60                movb    5,sp, 1,+y
6FE8 18 0A 85 A7                6FE8 18 0A 85 A7                movb    5,sp, 8,+sp
6FEC 18 0A 85 27                6FEC 18 0A 85 27                movb    5,sp, 8,+x
6FF0 18 0A 85 67                6FF0 18 0A 85 67                movb    5,sp, 8,+y
6FF4 18 0A 85 C0                6FF4 18 0A 85 C0                movb    5,sp,,pc
6FF8 18 0A 85 80                6FF8 18 0A 85 80                movb    5,sp,,sp
6FFC 18 0A 85 00                6FFC 18 0A 85 00                movb    5,sp,,x
7000 18 0A 85 40                7000 18 0A 85 40                movb    5,sp,,y
7004 18 0A 85 AF                7004 18 0A 85 AF                movb    5,sp, 1,-sp
7008 18 0A 85 2F                7008 18 0A 85 2F                movb    5,sp, 1,-x
700C 18 0A 85 6F                700C 18 0A 85 6F                movb    5,sp, 1,-y
7010 18 0A 85 A8                7010 18 0A 85 A8                movb    5,sp, 8,-sp
7014 18 0A 85 28                7014 18 0A 85 28                movb    5,sp, 8,-x
7018 18 0A 85 68                7018 18 0A 85 68                movb    5,sp, 8,-y
701C 18 0A 85 9F                701C 18 0A 85 9F                movb    5,sp, -1,sp
7020 18 0A 85 1F                7020 18 0A 85 1F                movb    5,sp, -1,x
7024 18 0A 85 5F                7024 18 0A 85 5F                movb    5,sp, -1,y
7028 18 0A 85 90                7028 18 0A 85 90                movb    5,sp, -16,sp
702C 18 0A 85 10                702C 18 0A 85 10                movb    5,sp, -16,x
7030 18 0A 85 50                7030 18 0A 85 50                movb    5,sp, -16,y
7034 18 0A 85 D2                7034 18 0A 85 D2                movb    5,sp, -small,pc
7038 18 0A 85 92                7038 18 0A 85 92                movb    5,sp, -small,sp
703C 18 0A 85 12                703C 18 0A 85 12                movb    5,sp, -small,x
7040 18 0A 85 52                7040 18 0A 85 52                movb    5,sp, -small,y
7044 18 0A 85 C0                7044 18 0A 85 C0                movb    5,sp, 0,pc
7048 18 0A 85 80                7048 18 0A 85 80                movb    5,sp, 0,sp
704C 18 0A 85 00                704C 18 0A 85 00                movb    5,sp, 0,x
7050 18 0A 85 40                7050 18 0A 85 40                movb    5,sp, 0,y
7054 18 0A 85 B0                7054 18 0A 85 B0                movb    5,sp, 1,sp+
7058 18 0A 85 30                7058 18 0A 85 30                movb    5,sp, 1,x+
705C 18 0A 85 70                705C 18 0A 85 70                movb    5,sp, 1,y+
7060 18 0A 85 81                7060 18 0A 85 81                movb    5,sp, 1,sp
7064 18 0A 85 01                7064 18 0A 85 01                movb    5,sp, 1,x
7068 18 0A 85 41                7068 18 0A 85 41                movb    5,sp, 1,y
706C 18 0A 85 BF                706C 18 0A 85 BF                movb    5,sp, 1,sp-
7070 18 0A 85 3F                7070 18 0A 85 3F                movb    5,sp, 1,x-
7074 18 0A 85 7F                7074 18 0A 85 7F                movb    5,sp, 1,y-
7078 18 0A 85 B7                7078 18 0A 85 B7                movb    5,sp, 8,sp+
707C 18 0A 85 37                707C 18 0A 85 37                movb    5,sp, 8,x+
7080 18 0A 85 77                7080 18 0A 85 77                movb    5,sp, 8,y+
7084 18 0A 85 B8                7084 18 0A 85 B8                movb    5,sp, 8,sp-
7088 18 0A 85 38                7088 18 0A 85 38                movb    5,sp, 8,x-
708C 18 0A 85 78                708C 18 0A 85 78                movb    5,sp, 8,y-
7090 18 0A 85 F4                7090 18 0A 85 F4                movb    5,sp, a,sp
7094 18 0A 85 E4                7094 18 0A 85 E4                movb    5,sp, a,x
7098 18 0A 85 EC                7098 18 0A 85 EC                movb    5,sp, a,y
709C 18 0A 85 F5                709C 18 0A 85 F5                movb    5,sp, b,sp
70A0 18 0A 85 E5                70A0 18 0A 85 E5                movb    5,sp, b,x
70A4 18 0A 85 ED                70A4 18 0A 85 ED                movb    5,sp, b,y
70A8 18 0A 85 F6                70A8 18 0A 85 F6                movb    5,sp, d,sp
70AC 18 0A 85 E6                70AC 18 0A 85 E6                movb    5,sp, d,x
70B0 18 0A 85 EE                70B0 18 0A 85 EE                movb    5,sp, d,y
70B4 18 0D 85 12 34             70B4 18 0D 85 12 34             movb    5,sp, ext
70B9 18 0A 85 CE                70B9 18 0A 85 CE                movb    5,sp, small,pc
70BD 18 0A 85 8E                70BD 18 0A 85 8E                movb    5,sp, small,sp
70C1 18 0A 85 0E                70C1 18 0A 85 0E                movb    5,sp, small,x
70C5 18 0A 85 4E                70C5 18 0A 85 4E                movb    5,sp, small,y
70C9 18 0A B7 22                70C9 18 0A B7 22                movb    8,sp+, 3,+x
70CD 18 0A B7 6B                70CD 18 0A B7 6B                movb    8,sp+, 5,-y
70D1 18 0A B7 85                70D1 18 0A B7 85                movb    8,sp+, 5,sp
70D5 18 0D B7 12 34             70D5 18 0D B7 12 34             movb    8,sp+, ext
70DA 18 0A 37 22                70DA 18 0A 37 22                movb    8,x+, 3,+x
70DE 18 0A 37 6B                70DE 18 0A 37 6B                movb    8,x+, 5,-y
70E2 18 0A 37 85                70E2 18 0A 37 85                movb    8,x+, 5,sp
70E6 18 0D 37 12 34             70E6 18 0D 37 12 34             movb    8,x+, ext
70EB 18 0A 77 22                70EB 18 0A 77 22                movb    8,y+, 3,+x
70EF 18 0A 77 6B                70EF 18 0A 77 6B                movb    8,y+, 5,-y
70F3 18 0A 77 85                70F3 18 0A 77 85                movb    8,y+, 5,sp
70F7 18 0D 77 12 34             70F7 18 0D 77 12 34             movb    8,y+, ext
70FC 18 0A B8 22                70FC 18 0A B8 22                movb    8,sp-, 3,+x
7100 18 0A B8 6B                7100 18 0A B8 6B                movb    8,sp-, 5,-y
7104 18 0A B8 85                7104 18 0A B8 85                movb    8,sp-, 5,sp
7108 18 0D B8 12 34             7108 18 0D B8 12 34             movb    8,sp-, ext
710D 18 0A 38 22                710D 18 0A 38 22                movb    8,x-, 3,+x
7111 18 0A 38 6B                7111 18 0A 38 6B                movb    8,x-, 5,-y
7115 18 0A 38 85                7115 18 0A 38 85                movb    8,x-, 5,sp
7119 18 0D 38 12 34             7119 18 0D 38 12 34             movb    8,x-, ext
711E 18 0A 78 22                711E 18 0A 78 22                movb    8,y-, 3,+x
7122 18 0A 78 6B                7122 18 0A 78 6B                movb    8,y-, 5,-y
7126 18 0A 78 85                7126 18 0A 78 85                movb    8,y-, 5,sp
712A 18 0D 78 12 34             712A 18 0D 78 12 34             movb    8,y-, ext
712F 18 0A F4 22                712F 18 0A F4 22                movb    a,sp, 3,+x
7133 18 0A F4 6B                7133 18 0A F4 6B                movb    a,sp, 5,-y
7137 18 0A F4 85                7137 18 0A F4 85                movb    a,sp, 5,sp
713B 18 0D F4 12 34             713B 18 0D F4 12 34             movb    a,sp, ext
7140 18 0A E4 22                7140 18 0A E4 22                movb    a,x, 3,+x
7144 18 0A E4 6B                7144 18 0A E4 6B                movb    a,x, 5,-y
7148 18 0A E4 85                7148 18 0A E4 85                movb    a,x, 5,sp
714C 18 0D E4 12 34             714C 18 0D E4 12 34             movb    a,x, ext
7151 18 0A EC 22                7151 18 0A EC 22                movb    a,y, 3,+x
7155 18 0A EC 6B                7155 18 0A EC 6B                movb    a,y, 5,-y
7159 18 0A EC 85                7159 18 0A EC 85                movb    a,y, 5,sp
715D 18 0D EC 12 34             715D 18 0D EC 12 34             movb    a,y, ext
7162 18 0A F5 22                7162 18 0A F5 22                movb    b,sp, 3,+x
7166 18 0A F5 6B                7166 18 0A F5 6B                movb    b,sp, 5,-y
716A 18 0A F5 85                716A 18 0A F5 85                movb    b,sp, 5,sp
716E 18 0D F5 12 34             716E 18 0D F5 12 34             movb    b,sp, ext
7173 18 0A E5 22                7173 18 0A E5 22                movb    b,x, 3,+x
7177 18 0A E5 6B                7177 18 0A E5 6B                movb    b,x, 5,-y
717B 18 0A E5 85                717B 18 0A E5 85                movb    b,x, 5,sp
717F 18 0D E5 12 34             717F 18 0D E5 12 34             movb    b,x, ext
7184 18 0A ED 22                7184 18 0A ED 22                movb    b,y, 3,+x
7188 18 0A ED 6B                7188 18 0A ED 6B                movb    b,y, 5,-y
718C 18 0A ED 85                718C 18 0A ED 85                movb    b,y, 5,sp
7190 18 0D ED 12 34             7190 18 0D ED 12 34             movb    b,y, ext
7195 18 0A F6 22                7195 18 0A F6 22                movb    d,sp, 3,+x
7199 18 0A F6 6B                7199 18 0A F6 6B                movb    d,sp, 5,-y
719D 18 0A F6 85                719D 18 0A F6 85                movb    d,sp, 5,sp
71A1 18 0D F6 12 34             71A1 18 0D F6 12 34             movb    d,sp, ext
71A6 18 0A E6 22                71A6 18 0A E6 22                movb    d,x, 3,+x
71AA 18 0A E6 6B                71AA 18 0A E6 6B                movb    d,x, 5,-y
71AE 18 0A E6 85                71AE 18 0A E6 85                movb    d,x, 5,sp
71B2 18 0D E6 12 34             71B2 18 0D E6 12 34             movb    d,x, ext
71B7 18 0A EE 22                71B7 18 0A EE 22                movb    d,y, 3,+x
71BB 18 0A EE 6B                71BB 18 0A EE 6B                movb    d,y, 5,-y
71BF 18 0A EE 85                71BF 18 0A EE 85                movb    d,y, 5,sp
71C3 18 0D EE 12 34             71C3 18 0D EE 12 34             movb    d,y, ext
71C8 18 09 A0 12 34             71C8 18 09 A0 12 34             movb    ext, 1,+sp
71CD 18 09 20 12 34             71CD 18 09 20 12 34             movb    ext, 1,+x
71D2 18 09 60 12 34             71D2 18 09 60 12 34             movb    ext, 1,+y
71D7 18 09 A7 12 34             71D7 18 09 A7 12 34             movb    ext, 8,+sp
71DC 18 09 27 12 34             71DC 18 09 27 12 34             movb    ext, 8,+x
71E1 18 09 67 12 34             71E1 18 09 67 12 34             movb    ext, 8,+y
71E6 18 09 C0 12 34             71E6 18 09 C0 12 34             movb    ext, ,pc
71EB 18 09 80 12 34             71EB 18 09 80 12 34             movb    ext, ,sp
71F0 18 09 00 12 34             71F0 18 09 00 12 34             movb    ext, ,x
71F5 18 09 40 12 34             71F5 18 09 40 12 34             movb    ext, ,y
71FA 18 09 AF 12 34             71FA 18 09 AF 12 34             movb    ext, 1,-sp
71FF 18 09 2F 12 34             71FF 18 09 2F 12 34             movb    ext, 1,-x
7204 18 09 6F 12 34             7204 18 09 6F 12 34             movb    ext, 1,-y
7209 18 09 A8 12 34             7209 18 09 A8 12 34             movb    ext, 8,-sp
720E 18 09 28 12 34             720E 18 09 28 12 34             movb    ext, 8,-x
7213 18 09 68 12 34             7213 18 09 68 12 34             movb    ext, 8,-y
7218 18 09 9F 12 34             7218 18 09 9F 12 34             movb    ext, -1,sp
721D 18 09 1F 12 34             721D 18 09 1F 12 34             movb    ext, -1,x
7222 18 09 5F 12 34             7222 18 09 5F 12 34             movb    ext, -1,y
7227 18 09 90 12 34             7227 18 09 90 12 34             movb    ext, -16,sp
722C 18 09 10 12 34             722C 18 09 10 12 34             movb    ext, -16,x
7231 18 09 50 12 34             7231 18 09 50 12 34             movb    ext, -16,y
7236 18 09 D2 12 34             7236 18 09 D2 12 34             movb    ext, -small,pc
723B 18 09 92 12 34             723B 18 09 92 12 34             movb    ext, -small,sp
7240 18 09 12 12 34             7240 18 09 12 12 34             movb    ext, -small,x
7245 18 09 52 12 34             7245 18 09 52 12 34             movb    ext, -small,y
724A 18 09 C0 12 34             724A 18 09 C0 12 34             movb    ext, 0,pc
724F 18 09 80 12 34             724F 18 09 80 12 34             movb    ext, 0,sp
7254 18 09 00 12 34             7254 18 09 00 12 34             movb    ext, 0,x
7259 18 09 40 12 34             7259 18 09 40 12 34             movb    ext, 0,y
725E 18 09 B0 12 34             725E 18 09 B0 12 34             movb    ext, 1,sp+
7263 18 09 30 12 34             7263 18 09 30 12 34             movb    ext, 1,x+
7268 18 09 70 12 34             7268 18 09 70 12 34             movb    ext, 1,y+
726D 18 09 81 12 34             726D 18 09 81 12 34             movb    ext, 1,sp
7272 18 09 01 12 34             7272 18 09 01 12 34             movb    ext, 1,x
7277 18 09 41 12 34             7277 18 09 41 12 34             movb    ext, 1,y
727C 18 09 BF 12 34             727C 18 09 BF 12 34             movb    ext, 1,sp-
7281 18 09 3F 12 34             7281 18 09 3F 12 34             movb    ext, 1,x-
7286 18 09 7F 12 34             7286 18 09 7F 12 34             movb    ext, 1,y-
728B 18 09 B7 12 34             728B 18 09 B7 12 34             movb    ext, 8,sp+
7290 18 09 37 12 34             7290 18 09 37 12 34             movb    ext, 8,x+
7295 18 09 77 12 34             7295 18 09 77 12 34             movb    ext, 8,y+
729A 18 09 B8 12 34             729A 18 09 B8 12 34             movb    ext, 8,sp-
729F 18 09 38 12 34             729F 18 09 38 12 34             movb    ext, 8,x-
72A4 18 09 78 12 34             72A4 18 09 78 12 34             movb    ext, 8,y-
72A9 18 09 F4 12 34             72A9 18 09 F4 12 34             movb    ext, a,sp
72AE 18 09 E4 12 34             72AE 18 09 E4 12 34             movb    ext, a,x
72B3 18 09 EC 12 34             72B3 18 09 EC 12 34             movb    ext, a,y
72B8 18 09 F5 12 34             72B8 18 09 F5 12 34             movb    ext, b,sp
72BD 18 09 E5 12 34             72BD 18 09 E5 12 34             movb    ext, b,x
72C2 18 09 ED 12 34             72C2 18 09 ED 12 34             movb    ext, b,y
72C7 18 09 F6 12 34             72C7 18 09 F6 12 34             movb    ext, d,sp
72CC 18 09 E6 12 34             72CC 18 09 E6 12 34             movb    ext, d,x
72D1 18 09 EE 12 34             72D1 18 09 EE 12 34             movb    ext, d,y
72D6 18 0C 12 34 12 34          72D6 18 0C 12 34 12 34          movb    ext, ext
72DC 18 09 CE 12 34             72DC 18 09 CE 12 34             movb    ext, small,pc
72E1 18 09 8E 12 34             72E1 18 09 8E 12 34             movb    ext, small,sp
72E6 18 09 0E 12 34             72E6 18 09 0E 12 34             movb    ext, small,x
72EB 18 09 4E 12 34             72EB 18 09 4E 12 34             movb    ext, small,y
72F0 18 0A CE 22                72F0 18 0A CE 22                movb    small,pc, 3,+x
72F4 18 0A CE 6B                72F4 18 0A CE 6B                movb    small,pc, 5,-y
72F8 18 0A CE 85                72F8 18 0A CE 85                movb    small,pc, 5,sp
72FC 18 0D CE 12 34             72FC 18 0D CE 12 34             movb    small,pc, ext
7301 18 0A 8E 22                7301 18 0A 8E 22                movb    small,sp, 3,+x
7305 18 0A 8E 6B                7305 18 0A 8E 6B                movb    small,sp, 5,-y
7309 18 0A 8E 85                7309 18 0A 8E 85                movb    small,sp, 5,sp
730D 18 0D 8E 12 34             730D 18 0D 8E 12 34             movb    small,sp, ext
7312 18 0A 0E 22                7312 18 0A 0E 22                movb    small,x, 3,+x
7316 18 0A 0E 6B                7316 18 0A 0E 6B                movb    small,x, 5,-y
731A 18 0A 0E 85                731A 18 0A 0E 85                movb    small,x, 5,sp
731E 18 0D 0E 12 34             731E 18 0D 0E 12 34             movb    small,x, ext
7323 18 0A 4E 22                7323 18 0A 4E 22                movb    small,y, 3,+x
7327 18 0A 4E 6B                7327 18 0A 4E 6B                movb    small,y, 5,-y
732B 18 0A 4E 85                732B 18 0A 4E 85                movb    small,y, 5,sp
732F 18 0D 4E 12 34             732F 18 0D 4E 12 34             movb    small,y, ext
7334 18 00 22 00 72             7334 18 00 22 00 72             movw    #immed, 3,+x
7339 18 00 6B 00 72             7339 18 00 6B 00 72             movw    #immed, 5,-y
733E 18 00 85 00 72             733E 18 00 85 00 72             movw    #immed, 5,sp
7343 18 03 00 72 12 34          7343 18 03 00 72 12 34          movw    #immed, ext
7349 18 02 A0 22                7349 18 02 A0 22                movw    1,+sp, 3,+x
734D 18 02 A0 6B                734D 18 02 A0 6B                movw    1,+sp, 5,-y
7351 18 02 A0 85                7351 18 02 A0 85                movw    1,+sp, 5,sp
7355 18 05 A0 12 34             7355 18 05 A0 12 34             movw    1,+sp, ext
735A 18 02 20 22                735A 18 02 20 22                movw    1,+x, 3,+x
735E 18 02 20 6B                735E 18 02 20 6B                movw    1,+x, 5,-y
7362 18 02 20 85                7362 18 02 20 85                movw    1,+x, 5,sp
7366 18 05 20 12 34             7366 18 05 20 12 34             movw    1,+x, ext
736B 18 02 60 22                736B 18 02 60 22                movw    1,+y, 3,+x
736F 18 02 60 6B                736F 18 02 60 6B                movw    1,+y, 5,-y
7373 18 02 60 85                7373 18 02 60 85                movw    1,+y, 5,sp
7377 18 05 60 12 34             7377 18 05 60 12 34             movw    1,+y, ext
737C 18 02 22 A0                737C 18 02 22 A0                movw    3,+x, 1,+sp
7380 18 02 22 20                7380 18 02 22 20                movw    3,+x, 1,+x
7384 18 02 22 60                7384 18 02 22 60                movw    3,+x, 1,+y
7388 18 02 22 A7                7388 18 02 22 A7                movw    3,+x, 8,+sp
738C 18 02 22 27                738C 18 02 22 27                movw    3,+x, 8,+x
7390 18 02 22 67                7390 18 02 22 67                movw    3,+x, 8,+y
7394 18 02 22 C0                7394 18 02 22 C0                movw    3,+x, ,pc
7398 18 02 22 80                7398 18 02 22 80                movw    3,+x, ,sp
739C 18 02 22 00                739C 18 02 22 00                movw    3,+x, ,x
73A0 18 02 22 40                73A0 18 02 22 40                movw    3,+x, ,y
73A4 18 02 22 AF                73A4 18 02 22 AF                movw    3,+x, 1,-sp
73A8 18 02 22 2F                73A8 18 02 22 2F                movw    3,+x, 1,-x
73AC 18 02 22 6F                73AC 18 02 22 6F                movw    3,+x, 1,-y
73B0 18 02 22 A8                73B0 18 02 22 A8                movw    3,+x, 8,-sp
73B4 18 02 22 28                73B4 18 02 22 28                movw    3,+x, 8,-x
73B8 18 02 22 68                73B8 18 02 22 68                movw    3,+x, 8,-y
73BC 18 02 22 9F                73BC 18 02 22 9F                movw    3,+x, -1,sp
73C0 18 02 22 1F                73C0 18 02 22 1F                movw    3,+x, -1,x
73C4 18 02 22 5F                73C4 18 02 22 5F                movw    3,+x, -1,y
73C8 18 02 22 90                73C8 18 02 22 90                movw    3,+x, -16,sp
73CC 18 02 22 10                73CC 18 02 22 10                movw    3,+x, -16,x
73D0 18 02 22 50                73D0 18 02 22 50                movw    3,+x, -16,y
73D4 18 02 22 D2                73D4 18 02 22 D2                movw    3,+x, -small,pc
73D8 18 02 22 92                73D8 18 02 22 92                movw    3,+x, -small,sp
73DC 18 02 22 12                73DC 18 02 22 12                movw    3,+x, -small,x
73E0 18 02 22 52                73E0 18 02 22 52                movw    3,+x, -small,y
73E4 18 02 22 C0                73E4 18 02 22 C0                movw    3,+x, 0,pc
73E8 18 02 22 80                73E8 18 02 22 80                movw    3,+x, 0,sp
73EC 18 02 22 00                73EC 18 02 22 00                movw    3,+x, 0,x
73F0 18 02 22 40                73F0 18 02 22 40                movw    3,+x, 0,y
73F4 18 02 22 B0                73F4 18 02 22 B0                movw    3,+x, 1,sp+
73F8 18 02 22 30                73F8 18 02 22 30                movw    3,+x, 1,x+
73FC 18 02 22 70                73FC 18 02 22 70                movw    3,+x, 1,y+
7400 18 02 22 81                7400 18 02 22 81                movw    3,+x, 1,sp
7404 18 02 22 01                7404 18 02 22 01                movw    3,+x, 1,x
7408 18 02 22 41                7408 18 02 22 41                movw    3,+x, 1,y
740C 18 02 22 BF                740C 18 02 22 BF                movw    3,+x, 1,sp-
7410 18 02 22 3F                7410 18 02 22 3F                movw    3,+x, 1,x-
7414 18 02 22 7F                7414 18 02 22 7F                movw    3,+x, 1,y-
7418 18 02 22 B7                7418 18 02 22 B7                movw    3,+x, 8,sp+
741C 18 02 22 37                741C 18 02 22 37                movw    3,+x, 8,x+
7420 18 02 22 77                7420 18 02 22 77                movw    3,+x, 8,y+
7424 18 02 22 B8                7424 18 02 22 B8                movw    3,+x, 8,sp-
7428 18 02 22 38                7428 18 02 22 38                movw    3,+x, 8,x-
742C 18 02 22 78                742C 18 02 22 78                movw    3,+x, 8,y-
7430 18 02 22 F4                7430 18 02 22 F4                movw    3,+x, a,sp
7434 18 02 22 E4                7434 18 02 22 E4                movw    3,+x, a,x
7438 18 02 22 EC                7438 18 02 22 EC                movw    3,+x, a,y
743C 18 02 22 F5                743C 18 02 22 F5                movw    3,+x, b,sp
7440 18 02 22 E5                7440 18 02 22 E5                movw    3,+x, b,x
7444 18 02 22 ED                7444 18 02 22 ED                movw    3,+x, b,y
7448 18 02 22 F6                7448 18 02 22 F6                movw    3,+x, d,sp
744C 18 02 22 E6                744C 18 02 22 E6                movw    3,+x, d,x
7450 18 02 22 EE                7450 18 02 22 EE                movw    3,+x, d,y
7454 18 05 22 12 34             7454 18 05 22 12 34             movw    3,+x, ext
7459 18 02 22 CE                7459 18 02 22 CE                movw    3,+x , small,pc
745D 18 02 22 8E                745D 18 02 22 8E                movw    3,+x , small,sp
7461 18 02 22 0E                7461 18 02 22 0E                movw    3,+x , small,x
7465 18 02 22 4E                7465 18 02 22 4E                movw    3,+x , small,y
7469 18 02 A7 22                7469 18 02 A7 22                movw    8,+sp , 3,+x
746D 18 02 A7 6B                746D 18 02 A7 6B                movw    8,+sp , 5,-y
7471 18 02 A7 85                7471 18 02 A7 85                movw    8,+sp , 5,sp
7475 18 05 A7 12 34             7475 18 05 A7 12 34             movw    8,+sp , ext
747A 18 02 27 22                747A 18 02 27 22                movw    8,+x , 3,+x
747E 18 02 27 6B                747E 18 02 27 6B                movw    8,+x , 5,-y
7482 18 02 27 85                7482 18 02 27 85                movw    8,+x , 5,sp
7486 18 05 27 12 34             7486 18 05 27 12 34             movw    8,+x , ext
748B 18 02 67 22                748B 18 02 67 22                movw    8,+y , 3,+x
748F 18 02 67 6B                748F 18 02 67 6B                movw    8,+y , 5,-y
7493 18 02 67 85                7493 18 02 67 85                movw    8,+y , 5,sp
7497 18 05 67 12 34             7497 18 05 67 12 34             movw    8,+y , ext
749C 18 02 C0 22                749C 18 02 C0 22                movw    ,pc , 3,+x
74A0 18 02 C0 6B                74A0 18 02 C0 6B                movw    ,pc , 5,-y
74A4 18 02 C0 85                74A4 18 02 C0 85                movw    ,pc , 5,sp
74A8 18 01 C0 00 00          |  74A8 18 05 C0 12 34             movw    ,pc , ext
74AD 18 02 80 22                74AD 18 02 80 22                movw    ,sp , 3,+x
74B1 18 02 80 6B                74B1 18 02 80 6B                movw    ,sp , 5,-y
74B5 18 02 80 85                74B5 18 02 80 85                movw    ,sp , 5,sp
74B9 18 01 80 00 00          |  74B9 18 05 80 12 34             movw    ,sp , ext
74BE 18 02 00 22                74BE 18 02 00 22                movw    ,x , 3,+x
74C2 18 02 00 6B                74C2 18 02 00 6B                movw    ,x , 5,-y
74C6 18 02 00 85                74C6 18 02 00 85                movw    ,x , 5,sp
74CA 18 01 00 00 00          |  74CA 18 05 00 12 34             movw    ,x , ext
74CF 18 02 40 22                74CF 18 02 40 22                movw    ,y , 3,+x
74D3 18 02 40 6B                74D3 18 02 40 6B                movw    ,y , 5,-y
74D7 18 02 40 85                74D7 18 02 40 85                movw    ,y , 5,sp
74DB 18 01 40 00 00          |  74DB 18 05 40 12 34             movw    ,y , ext
74E0 18 02 AF 22                74E0 18 02 AF 22                movw    1,-sp , 3,+x
74E4 18 02 AF 6B                74E4 18 02 AF 6B                movw    1,-sp , 5,-y
74E8 18 02 AF 85                74E8 18 02 AF 85                movw    1,-sp , 5,sp
74EC 18 05 AF 12 34             74EC 18 05 AF 12 34             movw    1,-sp , ext
74F1 18 02 2F 22                74F1 18 02 2F 22                movw    1,-x , 3,+x
74F5 18 02 2F 6B                74F5 18 02 2F 6B                movw    1,-x , 5,-y
74F9 18 02 2F 85                74F9 18 02 2F 85                movw    1,-x , 5,sp
74FD 18 05 2F 12 34             74FD 18 05 2F 12 34             movw    1,-x , ext
7502 18 02 6F 22                7502 18 02 6F 22                movw    1,-y , 3,+x
7506 18 02 6F 6B                7506 18 02 6F 6B                movw    1,-y , 5,-y
750A 18 02 6F 85                750A 18 02 6F 85                movw    1,-y , 5,sp
750E 18 05 6F 12 34             750E 18 05 6F 12 34             movw    1,-y , ext
7513 18 02 A8 22                7513 18 02 A8 22                movw    8,-sp , 3,+x
7517 18 02 A8 6B                7517 18 02 A8 6B                movw    8,-sp , 5,-y
751B 18 02 A8 85                751B 18 02 A8 85                movw    8,-sp , 5,sp
751F 18 05 A8 12 34             751F 18 05 A8 12 34             movw    8,-sp , ext
7524 18 02 28 22                7524 18 02 28 22                movw    8,-x , 3,+x
7528 18 02 28 6B                7528 18 02 28 6B                movw    8,-x , 5,-y
752C 18 02 28 85                752C 18 02 28 85                movw    8,-x , 5,sp
7530 18 05 28 12 34             7530 18 05 28 12 34             movw    8,-x , ext
7535 18 02 68 22                7535 18 02 68 22                movw    8,-y , 3,+x
7539 18 02 68 6B                7539 18 02 68 6B                movw    8,-y , 5,-y
753D 18 02 68 85                753D 18 02 68 85                movw    8,-y , 5,sp
7541 18 05 68 12 34             7541 18 05 68 12 34             movw    8,-y , ext
7546 18 02 9F 22                7546 18 02 9F 22                movw    -1,sp , 3,+x
754A 18 02 9F 6B                754A 18 02 9F 6B                movw    -1,sp , 5,-y
754E 18 02 9F 85                754E 18 02 9F 85                movw    -1,sp , 5,sp
7552 18 05 9F 12 34             7552 18 05 9F 12 34             movw    -1,sp , ext
7557 18 02 1F 22                7557 18 02 1F 22                movw    -1,x , 3,+x
755B 18 02 1F 6B                755B 18 02 1F 6B                movw    -1,x , 5,-y
755F 18 02 1F 85                755F 18 02 1F 85                movw    -1,x , 5,sp
7563 18 05 1F 12 34             7563 18 05 1F 12 34             movw    -1,x , ext
7568 18 02 5F 22                7568 18 02 5F 22                movw    -1,y , 3,+x
756C 18 02 5F 6B                756C 18 02 5F 6B                movw    -1,y , 5,-y
7570 18 02 5F 85                7570 18 02 5F 85                movw    -1,y , 5,sp
7574 18 05 5F 12 34             7574 18 05 5F 12 34             movw    -1,y , ext
7579 18 02 90 22                7579 18 02 90 22                movw    -16,sp , 3,+x
757D 18 02 90 6B                757D 18 02 90 6B                movw    -16,sp , 5,-y
7581 18 02 90 85                7581 18 02 90 85                movw    -16,sp , 5,sp
7585 18 05 90 12 34             7585 18 05 90 12 34             movw    -16,sp , ext
758A 18 02 10 22                758A 18 02 10 22                movw    -16,x , 3,+x
758E 18 02 10 6B                758E 18 02 10 6B                movw    -16,x , 5,-y
7592 18 02 10 85                7592 18 02 10 85                movw    -16,x , 5,sp
7596 18 05 10 12 34             7596 18 05 10 12 34             movw    -16,x , ext
759B 18 02 50 22                759B 18 02 50 22                movw    -16,y , 3,+x
759F 18 02 50 6B                759F 18 02 50 6B                movw    -16,y , 5,-y
75A3 18 02 50 85                75A3 18 02 50 85                movw    -16,y , 5,sp
75A7 18 05 50 12 34             75A7 18 05 50 12 34             movw    -16,y , ext
75AC 18 02 D2 22                75AC 18 02 D2 22                movw    -small,pc,3,+x
75B0 18 02 D2 6B                75B0 18 02 D2 6B                movw    -small,pc,5,-y
75B4 18 02 D2 85                75B4 18 02 D2 85                movw    -small,pc,5,sp
75B8 18 05 D2 12 34             75B8 18 05 D2 12 34             movw    -small,pc,ext
75BD 18 02 92 22                75BD 18 02 92 22                movw    -small,sp,3,+x
75C1 18 02 92 6B                75C1 18 02 92 6B                movw    -small,sp,5,-y
75C5 18 02 92 85                75C5 18 02 92 85                movw    -small,sp,5,sp
75C9 18 05 92 12 34             75C9 18 05 92 12 34             movw    -small,sp,ext
75CE 18 02 12 22                75CE 18 02 12 22                movw    -small,x, 3,+x
75D2 18 02 12 6B                75D2 18 02 12 6B                movw    -small,x, 5,-y
75D6 18 02 12 85                75D6 18 02 12 85                movw    -small,x, 5,sp
75DA 18 05 12 12 34             75DA 18 05 12 12 34             movw    -small,x, ext
75DF 18 02 52 22                75DF 18 02 52 22                movw    -small,y, 3,+x
75E3 18 02 52 6B                75E3 18 02 52 6B                movw    -small,y, 5,-y
75E7 18 02 52 85                75E7 18 02 52 85                movw    -small,y, 5,sp
75EB 18 05 52 12 34             75EB 18 05 52 12 34             movw    -small,y, ext
75F0 18 02 C0 22                75F0 18 02 C0 22                movw    0,pc, 3,+x
75F4 18 02 C0 6B                75F4 18 02 C0 6B                movw    0,pc, 5,-y
75F8 18 02 C0 85                75F8 18 02 C0 85                movw    0,pc, 5,sp
75FC 18 05 C0 12 34             75FC 18 05 C0 12 34             movw    0,pc, ext
7601 18 02 80 22                7601 18 02 80 22                movw    0,sp, 3,+x
7605 18 02 80 6B                7605 18 02 80 6B                movw    0,sp, 5,-y
7609 18 02 80 85                7609 18 02 80 85                movw    0,sp, 5,sp
760D 18 05 80 12 34             760D 18 05 80 12 34             movw    0,sp, ext
7612 18 02 00 22                7612 18 02 00 22                movw    0,x, 3,+x
7616 18 02 00 6B                7616 18 02 00 6B                movw    0,x, 5,-y
761A 18 02 00 85                761A 18 02 00 85                movw    0,x, 5,sp
761E 18 05 00 12 34             761E 18 05 00 12 34             movw    0,x, ext
7623 18 02 40 22                7623 18 02 40 22                movw    0,y, 3,+x
7627 18 02 40 6B                7627 18 02 40 6B                movw    0,y, 5,-y
762B 18 02 40 85                762B 18 02 40 85                movw    0,y, 5,sp
762F 18 05 40 12 34             762F 18 05 40 12 34             movw    0,y, ext
7634 18 02 B0 22                7634 18 02 B0 22                movw    1,sp+, 3,+x
7638 18 02 B0 6B                7638 18 02 B0 6B                movw    1,sp+, 5,-y
763C 18 02 B0 85                763C 18 02 B0 85                movw    1,sp+, 5,sp
7640 18 05 B0 12 34             7640 18 05 B0 12 34             movw    1,sp+, ext
7645 18 02 30 22                7645 18 02 30 22                movw    1,x+, 3,+x
7649 18 02 30 6B                7649 18 02 30 6B                movw    1,x+, 5,-y
764D 18 02 30 85                764D 18 02 30 85                movw    1,x+, 5,sp
7651 18 05 30 12 34             7651 18 05 30 12 34             movw    1,x+, ext
7656 18 02 70 22                7656 18 02 70 22                movw    1,y+, 3,+x
765A 18 02 70 6B                765A 18 02 70 6B                movw    1,y+, 5,-y
765E 18 02 70 85                765E 18 02 70 85                movw    1,y+, 5,sp
7662 18 05 70 12 34             7662 18 05 70 12 34             movw    1,y+, ext
7667 18 02 81 22                7667 18 02 81 22                movw    1,sp, 3,+x
766B 18 02 81 6B                766B 18 02 81 6B                movw    1,sp, 5,-y
766F 18 02 81 85                766F 18 02 81 85                movw    1,sp, 5,sp
7673 18 05 81 12 34             7673 18 05 81 12 34             movw    1,sp, ext
7678 18 02 01 22                7678 18 02 01 22                movw    1,x, 3,+x
767C 18 02 01 6B                767C 18 02 01 6B                movw    1,x, 5,-y
7680 18 02 01 85                7680 18 02 01 85                movw    1,x, 5,sp
7684 18 05 01 12 34             7684 18 05 01 12 34             movw    1,x, ext
7689 18 02 41 22                7689 18 02 41 22                movw    1,y, 3,+x
768D 18 02 41 6B                768D 18 02 41 6B                movw    1,y, 5,-y
7691 18 02 41 85                7691 18 02 41 85                movw    1,y, 5,sp
7695 18 05 41 12 34             7695 18 05 41 12 34             movw    1,y, ext
769A 18 02 BF 22                769A 18 02 BF 22                movw    1,sp-, 3,+x
769E 18 02 BF 6B                769E 18 02 BF 6B                movw    1,sp-, 5,-y
76A2 18 02 BF 85                76A2 18 02 BF 85                movw    1,sp-, 5,sp
76A6 18 05 BF 12 34             76A6 18 05 BF 12 34             movw    1,sp-, ext
76AB 18 02 3F 22                76AB 18 02 3F 22                movw    1,x-, 3,+x
76AF 18 02 3F 6B                76AF 18 02 3F 6B                movw    1,x-, 5,-y
76B3 18 02 3F 85                76B3 18 02 3F 85                movw    1,x-, 5,sp
76B7 18 05 3F 12 34             76B7 18 05 3F 12 34             movw    1,x-, ext
76BC 18 02 7F 22                76BC 18 02 7F 22                movw    1,y-, 3,+x
76C0 18 02 7F 6B                76C0 18 02 7F 6B                movw    1,y-, 5,-y
76C4 18 02 7F 85                76C4 18 02 7F 85                movw    1,y-, 5,sp
76C8 18 05 7F 12 34             76C8 18 05 7F 12 34             movw    1,y-, ext
76CD 18 02 6B A0                76CD 18 02 6B A0                movw    5,-y, 1,+sp
76D1 18 02 6B 20                76D1 18 02 6B 20                movw    5,-y, 1,+x
76D5 18 02 6B 60                76D5 18 02 6B 60                movw    5,-y, 1,+y
76D9 18 02 6B A7                76D9 18 02 6B A7                movw    5,-y, 8,+sp
76DD 18 02 6B 27                76DD 18 02 6B 27                movw    5,-y, 8,+x
76E1 18 02 6B 67                76E1 18 02 6B 67                movw    5,-y, 8,+y
76E5 18 02 6B C0                76E5 18 02 6B C0                movw    5,-y, ,pc
76E9 18 02 6B 80                76E9 18 02 6B 80                movw    5,-y, ,sp
76ED 18 02 6B 00                76ED 18 02 6B 00                movw    5,-y, ,x
76F1 18 02 6B 40                76F1 18 02 6B 40                movw    5,-y, ,y
76F5 18 02 6B AF                76F5 18 02 6B AF                movw    5,-y, 1,-sp
76F9 18 02 6B 2F                76F9 18 02 6B 2F                movw    5,-y, 1,-x
76FD 18 02 6B 6F                76FD 18 02 6B 6F                movw    5,-y, 1,-y
7701 18 02 6B A8                7701 18 02 6B A8                movw    5,-y, 8,-sp
7705 18 02 6B 28                7705 18 02 6B 28                movw    5,-y, 8,-x
7709 18 02 6B 68                7709 18 02 6B 68                movw    5,-y, 8,-y
770D 18 02 6B 9F                770D 18 02 6B 9F                movw    5,-y, -1,sp
7711 18 02 6B 1F                7711 18 02 6B 1F                movw    5,-y, -1,x
7715 18 02 6B 5F                7715 18 02 6B 5F                movw    5,-y, -1,y
7719 18 02 6B 90                7719 18 02 6B 90                movw    5,-y, -16,sp
771D 18 02 6B 10                771D 18 02 6B 10                movw    5,-y, -16,x
7721 18 02 6B 50                7721 18 02 6B 50                movw    5,-y, -16,y
7725 18 02 6B D2                7725 18 02 6B D2                movw    5,-y, -small,pc
7729 18 02 6B 92                7729 18 02 6B 92                movw    5,-y, -small,sp
772D 18 02 6B 12                772D 18 02 6B 12                movw    5,-y, -small,x
7731 18 02 6B 52                7731 18 02 6B 52                movw    5,-y, -small,y
7735 18 02 6B C0                7735 18 02 6B C0                movw    5,-y, 0,pc
7739 18 02 6B 80                7739 18 02 6B 80                movw    5,-y, 0,sp
773D 18 02 6B 00                773D 18 02 6B 00                movw    5,-y, 0,x
7741 18 02 6B 40                7741 18 02 6B 40                movw    5,-y, 0,y
7745 18 02 6B B0                7745 18 02 6B B0                movw    5,-y, 1,sp+
7749 18 02 6B 30                7749 18 02 6B 30                movw    5,-y, 1,x+
774D 18 02 6B 70                774D 18 02 6B 70                movw    5,-y, 1,y+
7751 18 02 6B 81                7751 18 02 6B 81                movw    5,-y, 1,sp
7755 18 02 6B 01                7755 18 02 6B 01                movw    5,-y, 1,x
7759 18 02 6B 41                7759 18 02 6B 41                movw    5,-y, 1,y
775D 18 02 6B BF                775D 18 02 6B BF                movw    5,-y, 1,sp-
7761 18 02 6B 3F                7761 18 02 6B 3F                movw    5,-y, 1,x-
7765 18 02 6B 7F                7765 18 02 6B 7F                movw    5,-y, 1,y-
7769 18 02 6B 8F                7769 18 02 6B 8F                movw    5,-y, 15,sp
776D 18 02 6B 0F                776D 18 02 6B 0F                movw    5,-y, 15,x
7771 18 02 6B 4F                7771 18 02 6B 4F                movw    5,-y, 15,y
7775 18 02 6B B7                7775 18 02 6B B7                movw    5,-y, 8,sp+
7779 18 02 6B 37                7779 18 02 6B 37                movw    5,-y, 8,x+
777D 18 02 6B 77                777D 18 02 6B 77                movw    5,-y, 8,y+
7781 18 02 6B B8                7781 18 02 6B B8                movw    5,-y, 8,sp-
7785 18 02 6B 38                7785 18 02 6B 38                movw    5,-y, 8,x-
7789 18 02 6B 78                7789 18 02 6B 78                movw    5,-y, 8,y-
778D 18 02 6B F4                778D 18 02 6B F4                movw    5,-y, a,sp
7791 18 02 6B E4                7791 18 02 6B E4                movw    5,-y, a,x
7795 18 02 6B EC                7795 18 02 6B EC                movw    5,-y, a,y
7799 18 02 6B F5                7799 18 02 6B F5                movw    5,-y, b,sp
779D 18 02 6B E5                779D 18 02 6B E5                movw    5,-y, b,x
77A1 18 02 6B ED                77A1 18 02 6B ED                movw    5,-y, b,y
77A5 18 02 6B F6                77A5 18 02 6B F6                movw    5,-y, d,sp
77A9 18 02 6B E6                77A9 18 02 6B E6                movw    5,-y, d,x
77AD 18 02 6B EE                77AD 18 02 6B EE                movw    5,-y, d,y
77B1 18 05 6B 12 34             77B1 18 05 6B 12 34             movw    5,-y, ext
77B6 18 02 6B CE                77B6 18 02 6B CE                movw    5,-y, small,pc
77BA 18 02 6B 8E                77BA 18 02 6B 8E                movw    5,-y, small,sp
77BE 18 02 6B 0E                77BE 18 02 6B 0E                movw    5,-y, small,x
77C2 18 02 6B 4E                77C2 18 02 6B 4E                movw    5,-y, small,y
77C6 18 02 8F 22                77C6 18 02 8F 22                movw    15,sp, 3,+x
77CA 18 02 8F 6B                77CA 18 02 8F 6B                movw    15,sp, 5,-y
77CE 18 02 8F 85                77CE 18 02 8F 85                movw    15,sp, 5,sp
77D2 18 05 8F 12 34             77D2 18 05 8F 12 34             movw    15,sp, ext
77D7 18 02 0F 22                77D7 18 02 0F 22                movw    15,x, 3,+x
77DB 18 02 0F 6B                77DB 18 02 0F 6B                movw    15,x, 5,-y
77DF 18 02 0F 85                77DF 18 02 0F 85                movw    15,x, 5,sp
77E3 18 05 0F 12 34             77E3 18 05 0F 12 34             movw    15,x, ext
77E8 18 02 4F 22                77E8 18 02 4F 22                movw    15,y, 3,+x
77EC 18 02 4F 6B                77EC 18 02 4F 6B                movw    15,y, 5,-y
77F0 18 02 4F 85                77F0 18 02 4F 85                movw    15,y, 5,sp
77F4 18 05 4F 12 34             77F4 18 05 4F 12 34             movw    15,y, ext
77F9 18 02 85 A0                77F9 18 02 85 A0                movw    5,sp, 1,+sp
77FD 18 02 85 20                77FD 18 02 85 20                movw    5,sp, 1,+x
7801 18 02 85 60                7801 18 02 85 60                movw    5,sp, 1,+y
7805 18 02 85 A7                7805 18 02 85 A7                movw    5,sp, 8,+sp
7809 18 02 85 27                7809 18 02 85 27                movw    5,sp, 8,+x
780D 18 02 85 67                780D 18 02 85 67                movw    5,sp, 8,+y
7811 18 02 85 C0                7811 18 02 85 C0                movw    5,sp,,pc
7815 18 02 85 80                7815 18 02 85 80                movw    5,sp,,sp
7819 18 02 85 00                7819 18 02 85 00                movw    5,sp,,x
781D 18 02 85 40                781D 18 02 85 40                movw    5,sp,,y
7821 18 02 85 AF                7821 18 02 85 AF                movw    5,sp, 1,-sp
7825 18 02 85 2F                7825 18 02 85 2F                movw    5,sp, 1,-x
7829 18 02 85 6F                7829 18 02 85 6F                movw    5,sp, 1,-y
782D 18 02 85 A8                782D 18 02 85 A8                movw    5,sp, 8,-sp
7831 18 02 85 28                7831 18 02 85 28                movw    5,sp, 8,-x
7835 18 02 85 68                7835 18 02 85 68                movw    5,sp, 8,-y
7839 18 02 85 9F                7839 18 02 85 9F                movw    5,sp, -1,sp
783D 18 02 85 1F                783D 18 02 85 1F                movw    5,sp, -1,x
7841 18 02 85 5F                7841 18 02 85 5F                movw    5,sp, -1,y
7845 18 02 85 90                7845 18 02 85 90                movw    5,sp, -16,sp
7849 18 02 85 10                7849 18 02 85 10                movw    5,sp, -16,x
784D 18 02 85 50                784D 18 02 85 50                movw    5,sp, -16,y
7851 18 02 85 D2                7851 18 02 85 D2                movw    5,sp, -small,pc
7855 18 02 85 92                7855 18 02 85 92                movw    5,sp, -small,sp
7859 18 02 85 12                7859 18 02 85 12                movw    5,sp, -small,x
785D 18 02 85 52                785D 18 02 85 52                movw    5,sp, -small,y
7861 18 02 85 C0                7861 18 02 85 C0                movw    5,sp, 0,pc
7865 18 02 85 80                7865 18 02 85 80                movw    5,sp, 0,sp
7869 18 02 85 00                7869 18 02 85 00                movw    5,sp, 0,x
786D 18 02 85 40                786D 18 02 85 40                movw    5,sp, 0,y
7871 18 02 85 B0                7871 18 02 85 B0                movw    5,sp, 1,sp+
7875 18 02 85 30                7875 18 02 85 30                movw    5,sp, 1,x+
7879 18 02 85 70                7879 18 02 85 70                movw    5,sp, 1,y+
787D 18 02 85 81                787D 18 02 85 81                movw    5,sp, 1,sp
7881 18 02 85 01                7881 18 02 85 01                movw    5,sp, 1,x
7885 18 02 85 41                7885 18 02 85 41                movw    5,sp, 1,y
7889 18 02 85 BF                7889 18 02 85 BF                movw    5,sp, 1,sp-
788D 18 02 85 3F                788D 18 02 85 3F                movw    5,sp, 1,x-
7891 18 02 85 7F                7891 18 02 85 7F                movw    5,sp, 1,y-
7895 18 02 85 B7                7895 18 02 85 B7                movw    5,sp, 8,sp+
7899 18 02 85 37                7899 18 02 85 37                movw    5,sp, 8,x+
789D 18 02 85 77                789D 18 02 85 77                movw    5,sp, 8,y+
78A1 18 02 85 B8                78A1 18 02 85 B8                movw    5,sp, 8,sp-
78A5 18 02 85 38                78A5 18 02 85 38                movw    5,sp, 8,x-
78A9 18 02 85 78                78A9 18 02 85 78                movw    5,sp, 8,y-
78AD 18 02 85 F4                78AD 18 02 85 F4                movw    5,sp, a,sp
78B1 18 02 85 E4                78B1 18 02 85 E4                movw    5,sp, a,x
78B5 18 02 85 EC                78B5 18 02 85 EC                movw    5,sp, a,y
78B9 18 02 85 F5                78B9 18 02 85 F5                movw    5,sp, b,sp
78BD 18 02 85 E5                78BD 18 02 85 E5                movw    5,sp, b,x
78C1 18 02 85 ED                78C1 18 02 85 ED                movw    5,sp, b,y
78C5 18 02 85 F6                78C5 18 02 85 F6                movw    5,sp, d,sp
78C9 18 02 85 E6                78C9 18 02 85 E6                movw    5,sp, d,x
78CD 18 02 85 EE                78CD 18 02 85 EE                movw    5,sp, d,y
78D1 18 05 85 12 34             78D1 18 05 85 12 34             movw    5,sp, ext
78D6 18 02 85 CE                78D6 18 02 85 CE                movw    5,sp, small,pc
78DA 18 02 85 8E                78DA 18 02 85 8E                movw    5,sp, small,sp
78DE 18 02 85 0E                78DE 18 02 85 0E                movw    5,sp, small,x
78E2 18 02 85 4E                78E2 18 02 85 4E                movw    5,sp, small,y
78E6 18 02 B7 22                78E6 18 02 B7 22                movw    8,sp+, 3,+x
78EA 18 02 B7 6B                78EA 18 02 B7 6B                movw    8,sp+, 5,-y
78EE 18 02 B7 85                78EE 18 02 B7 85                movw    8,sp+, 5,sp
78F2 18 05 B7 12 34             78F2 18 05 B7 12 34             movw    8,sp+, ext
78F7 18 02 37 22                78F7 18 02 37 22                movw    8,x+, 3,+x
78FB 18 02 37 6B                78FB 18 02 37 6B                movw    8,x+, 5,-y
78FF 18 02 37 85                78FF 18 02 37 85                movw    8,x+, 5,sp
7903 18 05 37 12 34             7903 18 05 37 12 34             movw    8,x+, ext
7908 18 02 77 22                7908 18 02 77 22                movw    8,y+, 3,+x
790C 18 02 77 6B                790C 18 02 77 6B                movw    8,y+, 5,-y
7910 18 02 77 85                7910 18 02 77 85                movw    8,y+, 5,sp
7914 18 05 77 12 34             7914 18 05 77 12 34             movw    8,y+, ext
7919 18 02 B8 22                7919 18 02 B8 22                movw    8,sp-, 3,+x
791D 18 02 B8 6B                791D 18 02 B8 6B                movw    8,sp-, 5,-y
7921 18 02 B8 85                7921 18 02 B8 85                movw    8,sp-, 5,sp
7925 18 05 B8 12 34             7925 18 05 B8 12 34             movw    8,sp-, ext
792A 18 02 38 22                792A 18 02 38 22                movw    8,x-, 3,+x
792E 18 02 38 6B                792E 18 02 38 6B                movw    8,x-, 5,-y
7932 18 02 38 85                7932 18 02 38 85                movw    8,x-, 5,sp
7936 18 05 38 12 34             7936 18 05 38 12 34             movw    8,x-, ext
793B 18 02 78 22                793B 18 02 78 22                movw    8,y-, 3,+x
793F 18 02 78 6B                793F 18 02 78 6B                movw    8,y-, 5,-y
7943 18 02 78 85                7943 18 02 78 85                movw    8,y-, 5,sp
7947 18 05 78 12 34             7947 18 05 78 12 34             movw    8,y-, ext
794C 18 02 F4 22                794C 18 02 F4 22                movw    a,sp, 3,+x
7950 18 02 F4 6B                7950 18 02 F4 6B                movw    a,sp, 5,-y
7954 18 02 F4 85                7954 18 02 F4 85                movw    a,sp, 5,sp
7958 18 05 F4 12 34             7958 18 05 F4 12 34             movw    a,sp, ext
795D 18 02 E4 22                795D 18 02 E4 22                movw    a,x, 3,+x
7961 18 02 E4 6B                7961 18 02 E4 6B                movw    a,x, 5,-y
7965 18 02 E4 85                7965 18 02 E4 85                movw    a,x, 5,sp
7969 18 05 E4 12 34             7969 18 05 E4 12 34             movw    a,x, ext
796E 18 02 EC 22                796E 18 02 EC 22                movw    a,y, 3,+x
7972 18 02 EC 6B                7972 18 02 EC 6B                movw    a,y, 5,-y
7976 18 02 EC 85                7976 18 02 EC 85                movw    a,y, 5,sp
797A 18 05 EC 12 34             797A 18 05 EC 12 34             movw    a,y, ext
797F 18 02 F5 22                797F 18 02 F5 22                movw    b,sp, 3,+x
7983 18 02 F5 6B                7983 18 02 F5 6B                movw    b,sp, 5,-y
7987 18 02 F5 85                7987 18 02 F5 85                movw    b,sp, 5,sp
798B 18 05 F5 12 34             798B 18 05 F5 12 34             movw    b,sp, ext
7990 18 02 E5 22                7990 18 02 E5 22                movw    b,x, 3,+x
7994 18 02 E5 6B                7994 18 02 E5 6B                movw    b,x, 5,-y
7998 18 02 E5 85                7998 18 02 E5 85                movw    b,x, 5,sp
799C 18 05 E5 12 34             799C 18 05 E5 12 34             movw    b,x, ext
79A1 18 02 ED 22                79A1 18 02 ED 22                movw    b,y, 3,+x
79A5 18 02 ED 6B                79A5 18 02 ED 6B                movw    b,y, 5,-y
79A9 18 02 ED 85                79A9 18 02 ED 85                movw    b,y, 5,sp
79AD 18 05 ED 12 34             79AD 18 05 ED 12 34             movw    b,y, ext
79B2 18 02 F6 22                79B2 18 02 F6 22                movw    d,sp, 3,+x
79B6 18 02 F6 6B                79B6 18 02 F6 6B                movw    d,sp, 5,-y
79BA 18 02 F6 85                79BA 18 02 F6 85                movw    d,sp, 5,sp
79BE 18 05 F6 12 34             79BE 18 05 F6 12 34             movw    d,sp, ext
79C3 18 02 E6 22                79C3 18 02 E6 22                movw    d,x, 3,+x
79C7 18 02 E6 6B                79C7 18 02 E6 6B                movw    d,x, 5,-y
79CB 18 02 E6 85                79CB 18 02 E6 85                movw    d,x, 5,sp
79CF 18 05 E6 12 34             79CF 18 05 E6 12 34             movw    d,x, ext
79D4 18 02 EE 22                79D4 18 02 EE 22                movw    d,y, 3,+x
79D8 18 02 EE 6B                79D8 18 02 EE 6B                movw    d,y, 5,-y
79DC 18 02 EE 85                79DC 18 02 EE 85                movw    d,y, 5,sp
79E0 18 05 EE 12 34             79E0 18 05 EE 12 34             movw    d,y, ext
79E5 18 01 A0 12 34             79E5 18 01 A0 12 34             movw    ext, 1,+sp
79EA 18 01 20 12 34             79EA 18 01 20 12 34             movw    ext, 1,+x
79EF 18 01 60 12 34             79EF 18 01 60 12 34             movw    ext, 1,+y
79F4 18 01 A7 12 34             79F4 18 01 A7 12 34             movw    ext, 8,+sp
79F9 18 01 27 12 34             79F9 18 01 27 12 34             movw    ext, 8,+x
79FE 18 01 67 12 34             79FE 18 01 67 12 34             movw    ext, 8,+y
7A03 18 01 C0 12 34             7A03 18 01 C0 12 34             movw    ext,,pc
7A08 18 01 80 12 34             7A08 18 01 80 12 34             movw    ext,,sp
7A0D 18 01 00 12 34             7A0D 18 01 00 12 34             movw    ext,,x
7A12 18 01 40 12 34             7A12 18 01 40 12 34             movw    ext,,y
7A17 18 01 AF 12 34             7A17 18 01 AF 12 34             movw    ext, 1,-sp
7A1C 18 01 2F 12 34             7A1C 18 01 2F 12 34             movw    ext, 1,-x
7A21 18 01 6F 12 34             7A21 18 01 6F 12 34             movw    ext, 1,-y
7A26 18 01 A8 12 34             7A26 18 01 A8 12 34             movw    ext, 8,-sp
7A2B 18 01 28 12 34             7A2B 18 01 28 12 34             movw    ext, 8,-x
7A30 18 01 68 12 34             7A30 18 01 68 12 34             movw    ext, 8,-y
7A35 18 01 9F 12 34             7A35 18 01 9F 12 34             movw    ext, -1,sp
7A3A 18 01 1F 12 34             7A3A 18 01 1F 12 34             movw    ext, -1,x
7A3F 18 01 5F 12 34             7A3F 18 01 5F 12 34             movw    ext, -1,y
7A44 18 01 90 12 34             7A44 18 01 90 12 34             movw    ext, -16,sp
7A49 18 01 10 12 34             7A49 18 01 10 12 34             movw    ext, -16,x
7A4E 18 01 50 12 34             7A4E 18 01 50 12 34             movw    ext, -16,y
7A53 18 01 D2 12 34             7A53 18 01 D2 12 34             movw    ext, -small,pc
7A58 18 01 92 12 34             7A58 18 01 92 12 34             movw    ext, -small,sp
7A5D 18 01 12 12 34             7A5D 18 01 12 12 34             movw    ext, -small,x
7A62 18 01 52 12 34             7A62 18 01 52 12 34             movw    ext, -small,y
7A67 18 01 C0 12 34             7A67 18 01 C0 12 34             movw    ext, 0,pc
7A6C 18 01 80 12 34             7A6C 18 01 80 12 34             movw    ext, 0,sp
7A71 18 01 00 12 34             7A71 18 01 00 12 34             movw    ext, 0,x
7A76 18 01 40 12 34             7A76 18 01 40 12 34             movw    ext, 0,y
7A7B 18 01 B0 12 34             7A7B 18 01 B0 12 34             movw    ext, 1,sp+
7A80 18 01 30 12 34             7A80 18 01 30 12 34             movw    ext, 1,x+
7A85 18 01 70 12 34             7A85 18 01 70 12 34             movw    ext, 1,y+
7A8A 18 01 81 12 34             7A8A 18 01 81 12 34             movw    ext, 1,sp
7A8F 18 01 01 12 34             7A8F 18 01 01 12 34             movw    ext, 1,x
7A94 18 01 41 12 34             7A94 18 01 41 12 34             movw    ext, 1,y
7A99 18 01 BF 12 34             7A99 18 01 BF 12 34             movw    ext, 1,sp-
7A9E 18 01 3F 12 34             7A9E 18 01 3F 12 34             movw    ext, 1,x-
7AA3 18 01 7F 12 34             7AA3 18 01 7F 12 34             movw    ext, 1,y-
7AA8 18 01 B7 12 34             7AA8 18 01 B7 12 34             movw    ext, 8,sp+
7AAD 18 01 37 12 34             7AAD 18 01 37 12 34             movw    ext, 8,x+
7AB2 18 01 77 12 34             7AB2 18 01 77 12 34             movw    ext, 8,y+
7AB7 18 01 B8 12 34             7AB7 18 01 B8 12 34             movw    ext, 8,sp-
7ABC 18 01 38 12 34             7ABC 18 01 38 12 34             movw    ext, 8,x-
7AC1 18 01 78 12 34             7AC1 18 01 78 12 34             movw    ext, 8,y-
7AC6 18 01 F4 12 34             7AC6 18 01 F4 12 34             movw    ext, a,sp
7ACB 18 01 E4 12 34             7ACB 18 01 E4 12 34             movw    ext, a,x
7AD0 18 01 EC 12 34             7AD0 18 01 EC 12 34             movw    ext, a,y
7AD5 18 01 F5 12 34             7AD5 18 01 F5 12 34             movw    ext, b,sp
7ADA 18 01 E5 12 34             7ADA 18 01 E5 12 34             movw    ext, b,x
7ADF 18 01 ED 12 34             7ADF 18 01 ED 12 34             movw    ext, b,y
7AE4 18 01 F6 12 34             7AE4 18 01 F6 12 34             movw    ext, d,sp
7AE9 18 01 E6 12 34             7AE9 18 01 E6 12 34             movw    ext, d,x
7AEE 18 01 EE 12 34             7AEE 18 01 EE 12 34             movw    ext, d,y
7AF3 18 04 12 34 12 34          7AF3 18 04 12 34 12 34          movw    ext, ext
7AF9 18 01 CE 12 34             7AF9 18 01 CE 12 34             movw    ext, small,pc
7AFE 18 01 8E 12 34             7AFE 18 01 8E 12 34             movw    ext, small,sp
7B03 18 01 0E 12 34             7B03 18 01 0E 12 34             movw    ext, small,x
7B08 18 01 4E 12 34             7B08 18 01 4E 12 34             movw    ext, small,y
7B0D 18 02 CE 22                7B0D 18 02 CE 22                movw    small,pc, 3,+x
7B11 18 02 CE 6B                7B11 18 02 CE 6B                movw    small,pc, 5,-y
7B15 18 02 CE 85                7B15 18 02 CE 85                movw    small,pc, 5,sp
7B19 18 05 CE 12 34             7B19 18 05 CE 12 34             movw    small,pc, ext
7B1E 18 02 8E 22                7B1E 18 02 8E 22                movw    small,sp, 3,+x
7B22 18 02 8E 6B                7B22 18 02 8E 6B                movw    small,sp, 5,-y
7B26 18 02 8E 85                7B26 18 02 8E 85                movw    small,sp, 5,sp
7B2A 18 05 8E 12 34             7B2A 18 05 8E 12 34             movw    small,sp, ext
7B2F 18 02 0E 22                7B2F 18 02 0E 22                movw    small,x , 3,+x
7B33 18 02 0E 6B                7B33 18 02 0E 6B                movw    small,x , 5,-y
7B37 18 02 0E 85                7B37 18 02 0E 85                movw    small,x , 5,sp
7B3B 18 05 0E 12 34             7B3B 18 05 0E 12 34             movw    small,x , ext
7B40 18 02 4E 22                7B40 18 02 4E 22                movw    small,y , 3,+x
7B44 18 02 4E 6B                7B44 18 02 4E 6B                movw    small,y , 5,-y
7B48 18 02 4E 85                7B48 18 02 4E 85                movw    small,y , 5,sp
7B4C 18 05 4E 12 34             7B4C 18 05 4E 12 34             movw    small,y , ext
7B51 18 0A 30 7F                7B51 18 0A 30 7F                movb    1,x+, 1,y-
7B55 18 0A 00 00                7B55 18 0A 00 00                movb    0,x,  0,x
